ARM GAS  C:\Users\DEVELO~1\AppData\Local\Temp\cc15HDCU.s 			page 1


   1              		.cpu cortex-m7
   2              		.arch armv7e-m
   3              		.fpu softvfp
   4              		.eabi_attribute 20, 1
   5              		.eabi_attribute 21, 1
   6              		.eabi_attribute 23, 3
   7              		.eabi_attribute 24, 1
   8              		.eabi_attribute 25, 1
   9              		.eabi_attribute 26, 1
  10              		.eabi_attribute 30, 2
  11              		.eabi_attribute 34, 1
  12              		.eabi_attribute 18, 4
  13              		.file	"stm32h7xx_ll_usb.c"
  14              		.text
  15              	.Ltext0:
  16              		.cfi_sections	.debug_frame
  17              		.section	.text.USB_CoreReset,"ax",%progbits
  18              		.align	1
  19              		.p2align 4,,15
  20              		.syntax unified
  21              		.thumb
  22              		.thumb_func
  23              		.type	USB_CoreReset, %function
  24              	USB_CoreReset:
  25              	.LVL0:
  26              	.LFB175:
  27              		.file 1 "./drivers/stm32h7xx-hal-driver/Src/stm32h7xx_ll_usb.c"
  28              		.loc 1 1386 1 view -0
  29              		.cfi_startproc
  30              		@ args = 0, pretend = 0, frame = 8
  31              		@ frame_needed = 0, uses_anonymous_args = 0
  32              		@ link register save eliminated.
  33              		.loc 1 1387 3 view .LVU1
  34              		.loc 1 1386 1 is_stmt 0 view .LVU2
  35 0000 82B0     		sub	sp, sp, #8
  36              		.cfi_def_cfa_offset 8
  37              		.loc 1 1387 17 view .LVU3
  38 0002 0023     		movs	r3, #0
  39 0004 0193     		str	r3, [sp, #4]
  40 0006 02E0     		b	.L3
  41              	.L11:
  42              		.loc 1 1398 17 view .LVU4
  43 0008 0369     		ldr	r3, [r0, #16]
  44              		.loc 1 1398 53 view .LVU5
  45 000a 002B     		cmp	r3, #0
  46 000c 09DB     		blt	.L10
  47              	.L3:
  48              		.loc 1 1390 3 is_stmt 1 view .LVU6
  49              		.loc 1 1392 5 view .LVU7
  50              		.loc 1 1398 53 view .LVU8
  51              		.loc 1 1392 10 is_stmt 0 view .LVU9
  52 000e 019B     		ldr	r3, [sp, #4]
  53 0010 0133     		adds	r3, r3, #1
  54 0012 0193     		str	r3, [sp, #4]
  55              		.loc 1 1394 5 is_stmt 1 view .LVU10
  56              		.loc 1 1394 15 is_stmt 0 view .LVU11
  57 0014 019B     		ldr	r3, [sp, #4]
ARM GAS  C:\Users\DEVELO~1\AppData\Local\Temp\cc15HDCU.s 			page 2


  58              		.loc 1 1394 8 view .LVU12
  59 0016 B3F1706F 		cmp	r3, #251658240
  60 001a F5D9     		bls	.L11
  61              	.L2:
  62              		.loc 1 1396 14 view .LVU13
  63 001c 0320     		movs	r0, #3
  64              	.LVL1:
  65              		.loc 1 1415 1 view .LVU14
  66 001e 02B0     		add	sp, sp, #8
  67              		.cfi_remember_state
  68              		.cfi_def_cfa_offset 0
  69              		@ sp needed
  70 0020 7047     		bx	lr
  71              	.LVL2:
  72              	.L10:
  73              		.cfi_restore_state
  74              		.loc 1 1401 3 is_stmt 1 view .LVU15
  75              		.loc 1 1401 9 is_stmt 0 view .LVU16
  76 0022 0023     		movs	r3, #0
  77 0024 0193     		str	r3, [sp, #4]
  78              		.loc 1 1402 3 is_stmt 1 view .LVU17
  79              		.loc 1 1402 17 is_stmt 0 view .LVU18
  80 0026 0369     		ldr	r3, [r0, #16]
  81 0028 43F00103 		orr	r3, r3, #1
  82 002c 0361     		str	r3, [r0, #16]
  83 002e 03E0     		b	.L4
  84              	.L13:
  85              		.loc 1 1412 17 view .LVU19
  86 0030 0369     		ldr	r3, [r0, #16]
  87              		.loc 1 1412 52 view .LVU20
  88 0032 13F00103 		ands	r3, r3, #1
  89 0036 07D0     		beq	.L12
  90              	.L4:
  91              		.loc 1 1404 3 is_stmt 1 view .LVU21
  92              		.loc 1 1406 5 view .LVU22
  93              		.loc 1 1412 52 view .LVU23
  94              		.loc 1 1406 10 is_stmt 0 view .LVU24
  95 0038 019B     		ldr	r3, [sp, #4]
  96 003a 0133     		adds	r3, r3, #1
  97 003c 0193     		str	r3, [sp, #4]
  98              		.loc 1 1408 5 is_stmt 1 view .LVU25
  99              		.loc 1 1408 15 is_stmt 0 view .LVU26
 100 003e 019B     		ldr	r3, [sp, #4]
 101              		.loc 1 1408 8 view .LVU27
 102 0040 B3F1706F 		cmp	r3, #251658240
 103 0044 F4D9     		bls	.L13
 104 0046 E9E7     		b	.L2
 105              	.L12:
 106              		.loc 1 1414 10 view .LVU28
 107 0048 1846     		mov	r0, r3
 108              	.LVL3:
 109              		.loc 1 1415 1 view .LVU29
 110 004a 02B0     		add	sp, sp, #8
 111              		.cfi_def_cfa_offset 0
 112              		@ sp needed
 113 004c 7047     		bx	lr
 114              		.cfi_endproc
ARM GAS  C:\Users\DEVELO~1\AppData\Local\Temp\cc15HDCU.s 			page 3


 115              	.LFE175:
 116              		.size	USB_CoreReset, .-USB_CoreReset
 117              		.section	.text.USB_CoreInit,"ax",%progbits
 118              		.align	1
 119              		.p2align 4,,15
 120              		.global	USB_CoreInit
 121              		.syntax unified
 122              		.thumb
 123              		.thumb_func
 124              		.type	USB_CoreInit, %function
 125              	USB_CoreInit:
 126              	.LVL4:
 127              	.LFB141:
 128              		.loc 1 84 1 is_stmt 1 view -0
 129              		.cfi_startproc
 130              		@ args = 20, pretend = 16, frame = 0
 131              		@ frame_needed = 0, uses_anonymous_args = 0
 132              		.loc 1 85 3 view .LVU31
 133              		.loc 1 86 3 view .LVU32
 134              		.loc 1 84 1 is_stmt 0 view .LVU33
 135 0000 84B0     		sub	sp, sp, #16
 136              		.cfi_def_cfa_offset 16
 137 0002 10B5     		push	{r4, lr}
 138              		.cfi_def_cfa_offset 24
 139              		.cfi_offset 4, -24
 140              		.cfi_offset 14, -20
 141              		.loc 1 84 1 view .LVU34
 142 0004 0DF10C0C 		add	ip, sp, #12
 143 0008 0446     		mov	r4, r0
 144 000a 8CE80E00 		stm	ip, {r1, r2, r3}
 145              		.loc 1 86 6 view .LVU35
 146 000e 9DF81130 		ldrb	r3, [sp, #17]	@ zero_extendqisi2
 147 0012 012B     		cmp	r3, #1
 148 0014 2BD1     		bne	.L15
 149              		.loc 1 88 5 is_stmt 1 view .LVU36
 150              		.loc 1 88 17 is_stmt 0 view .LVU37
 151 0016 826B     		ldr	r2, [r0, #56]
 152              		.loc 1 91 19 view .LVU38
 153 0018 A3F14213 		sub	r3, r3, #4325442
 154              		.loc 1 95 8 view .LVU39
 155 001c 9DF81810 		ldrb	r1, [sp, #24]	@ zero_extendqisi2
 156              		.loc 1 88 17 view .LVU40
 157 0020 22F48032 		bic	r2, r2, #65536
 158              		.loc 1 95 8 view .LVU41
 159 0024 0129     		cmp	r1, #1
 160              		.loc 1 88 17 view .LVU42
 161 0026 8263     		str	r2, [r0, #56]
 162              		.loc 1 91 5 is_stmt 1 view .LVU43
 163              		.loc 1 91 19 is_stmt 0 view .LVU44
 164 0028 C268     		ldr	r2, [r0, #12]
 165 002a 03EA0203 		and	r3, r3, r2
 166 002e C360     		str	r3, [r0, #12]
 167              		.loc 1 94 5 is_stmt 1 view .LVU45
 168              		.loc 1 94 19 is_stmt 0 view .LVU46
 169 0030 C368     		ldr	r3, [r0, #12]
 170 0032 23F44013 		bic	r3, r3, #3145728
 171 0036 C360     		str	r3, [r0, #12]
ARM GAS  C:\Users\DEVELO~1\AppData\Local\Temp\cc15HDCU.s 			page 4


 172              		.loc 1 95 5 is_stmt 1 view .LVU47
 173              		.loc 1 95 8 is_stmt 0 view .LVU48
 174 0038 2CD0     		beq	.L21
 175              	.L16:
 176              		.loc 1 101 5 is_stmt 1 view .LVU49
 177              		.loc 1 101 11 is_stmt 0 view .LVU50
 178 003a 2046     		mov	r0, r4
 179              	.LVL5:
 180              		.loc 1 101 11 view .LVU51
 181 003c FFF7FEFF 		bl	USB_CoreReset
 182              	.LVL6:
 183              	.L17:
 184              		.loc 1 123 3 is_stmt 1 view .LVU52
 185              		.loc 1 123 6 is_stmt 0 view .LVU53
 186 0040 9DF80E30 		ldrb	r3, [sp, #14]	@ zero_extendqisi2
 187 0044 012B     		cmp	r3, #1
 188 0046 0ED1     		bne	.L19
 189              		.loc 1 126 5 is_stmt 1 view .LVU54
 190              		.loc 1 126 21 is_stmt 0 view .LVU55
 191 0048 E26D     		ldr	r2, [r4, #92]
 192              		.loc 1 127 21 view .LVU56
 193 004a 154B     		ldr	r3, .L22
 194              		.loc 1 126 21 view .LVU57
 195 004c 92B2     		uxth	r2, r2
 196 004e E265     		str	r2, [r4, #92]
 197              		.loc 1 127 5 is_stmt 1 view .LVU58
 198              		.loc 1 127 21 is_stmt 0 view .LVU59
 199 0050 E26D     		ldr	r2, [r4, #92]
 200 0052 1343     		orrs	r3, r3, r2
 201 0054 E365     		str	r3, [r4, #92]
 202              		.loc 1 129 5 is_stmt 1 view .LVU60
 203              		.loc 1 129 19 is_stmt 0 view .LVU61
 204 0056 A368     		ldr	r3, [r4, #8]
 205 0058 43F00603 		orr	r3, r3, #6
 206 005c A360     		str	r3, [r4, #8]
 207              		.loc 1 130 5 is_stmt 1 view .LVU62
 208              		.loc 1 130 19 is_stmt 0 view .LVU63
 209 005e A368     		ldr	r3, [r4, #8]
 210 0060 43F02003 		orr	r3, r3, #32
 211 0064 A360     		str	r3, [r4, #8]
 212              	.L19:
 213              		.loc 1 133 3 is_stmt 1 view .LVU64
 214              		.loc 1 134 1 is_stmt 0 view .LVU65
 215 0066 BDE81040 		pop	{r4, lr}
 216              		.cfi_remember_state
 217              		.cfi_restore 14
 218              		.cfi_restore 4
 219              		.cfi_def_cfa_offset 16
 220              	.LVL7:
 221              		.loc 1 134 1 view .LVU66
 222 006a 04B0     		add	sp, sp, #16
 223              		.cfi_def_cfa_offset 0
 224 006c 7047     		bx	lr
 225              	.LVL8:
 226              	.L15:
 227              		.cfi_restore_state
 228              		.loc 1 106 5 is_stmt 1 view .LVU67
ARM GAS  C:\Users\DEVELO~1\AppData\Local\Temp\cc15HDCU.s 			page 5


 229              		.loc 1 106 19 is_stmt 0 view .LVU68
 230 006e C368     		ldr	r3, [r0, #12]
 231 0070 43F04003 		orr	r3, r3, #64
 232 0074 C360     		str	r3, [r0, #12]
 233              		.loc 1 109 5 is_stmt 1 view .LVU69
 234              		.loc 1 109 11 is_stmt 0 view .LVU70
 235 0076 FFF7FEFF 		bl	USB_CoreReset
 236              	.LVL9:
 237              		.loc 1 111 8 view .LVU71
 238 007a 9DF81530 		ldrb	r3, [sp, #21]	@ zero_extendqisi2
 239              	.LVL10:
 240              		.loc 1 111 5 is_stmt 1 view .LVU72
 241              		.loc 1 111 8 is_stmt 0 view .LVU73
 242 007e 23B9     		cbnz	r3, .L18
 243              		.loc 1 114 7 is_stmt 1 view .LVU74
 244              		.loc 1 114 19 is_stmt 0 view .LVU75
 245 0080 A36B     		ldr	r3, [r4, #56]
 246 0082 43F48033 		orr	r3, r3, #65536
 247 0086 A363     		str	r3, [r4, #56]
 248 0088 DAE7     		b	.L17
 249              	.L18:
 250              		.loc 1 119 7 is_stmt 1 view .LVU76
 251              		.loc 1 119 19 is_stmt 0 view .LVU77
 252 008a A36B     		ldr	r3, [r4, #56]
 253 008c 23F48033 		bic	r3, r3, #65536
 254 0090 A363     		str	r3, [r4, #56]
 255 0092 D5E7     		b	.L17
 256              	.LVL11:
 257              	.L21:
 258              		.loc 1 97 7 is_stmt 1 view .LVU78
 259              		.loc 1 97 21 is_stmt 0 view .LVU79
 260 0094 C368     		ldr	r3, [r0, #12]
 261 0096 43F48013 		orr	r3, r3, #1048576
 262 009a C360     		str	r3, [r0, #12]
 263 009c CDE7     		b	.L16
 264              	.L23:
 265 009e 00BF     		.align	2
 266              	.L22:
 267 00a0 0000EE03 		.word	65929216
 268              		.cfi_endproc
 269              	.LFE141:
 270              		.size	USB_CoreInit, .-USB_CoreInit
 271              		.section	.text.USB_SetTurnaroundTime,"ax",%progbits
 272              		.align	1
 273              		.p2align 4,,15
 274              		.global	USB_SetTurnaroundTime
 275              		.syntax unified
 276              		.thumb
 277              		.thumb_func
 278              		.type	USB_SetTurnaroundTime, %function
 279              	USB_SetTurnaroundTime:
 280              	.LVL12:
 281              	.LFB142:
 282              		.loc 1 145 1 is_stmt 1 view -0
 283              		.cfi_startproc
 284              		@ args = 0, pretend = 0, frame = 0
 285              		@ frame_needed = 0, uses_anonymous_args = 0
ARM GAS  C:\Users\DEVELO~1\AppData\Local\Temp\cc15HDCU.s 			page 6


 286              		@ link register save eliminated.
 287              		.loc 1 146 3 view .LVU81
 288              		.loc 1 152 3 view .LVU82
 289              		.loc 1 152 6 is_stmt 0 view .LVU83
 290 0000 022A     		cmp	r2, #2
 291              		.loc 1 145 1 view .LVU84
 292 0002 0346     		mov	r3, r0
 293              		.loc 1 152 6 view .LVU85
 294 0004 0AD0     		beq	.L36
 295              	.LVL13:
 296              	.L33:
 297              		.loc 1 152 6 view .LVU86
 298 0006 4FF41051 		mov	r1, #9216
 299              	.LVL14:
 300              	.L25:
 301              		.loc 1 214 3 is_stmt 1 view .LVU87
 302              		.loc 1 214 17 is_stmt 0 view .LVU88
 303 000a DA68     		ldr	r2, [r3, #12]
 304              		.loc 1 218 1 view .LVU89
 305 000c 0020     		movs	r0, #0
 306              		.loc 1 214 17 view .LVU90
 307 000e 22F47052 		bic	r2, r2, #15360
 308 0012 DA60     		str	r2, [r3, #12]
 309              		.loc 1 215 3 is_stmt 1 view .LVU91
 310              		.loc 1 215 17 is_stmt 0 view .LVU92
 311 0014 DA68     		ldr	r2, [r3, #12]
 312 0016 0A43     		orrs	r2, r2, r1
 313 0018 DA60     		str	r2, [r3, #12]
 314              		.loc 1 217 3 is_stmt 1 view .LVU93
 315              		.loc 1 218 1 is_stmt 0 view .LVU94
 316 001a 7047     		bx	lr
 317              	.LVL15:
 318              	.L36:
 319              		.loc 1 154 5 is_stmt 1 view .LVU95
 320              		.loc 1 154 29 is_stmt 0 view .LVU96
 321 001c 234A     		ldr	r2, .L37
 322              	.LVL16:
 323              		.loc 1 154 8 view .LVU97
 324 001e 2448     		ldr	r0, .L37+4
 325              	.LVL17:
 326              		.loc 1 154 29 view .LVU98
 327 0020 0A44     		add	r2, r2, r1
 328              		.loc 1 154 8 view .LVU99
 329 0022 8242     		cmp	r2, r0
 330 0024 2CD9     		bls	.L27
 331              		.loc 1 159 10 is_stmt 1 view .LVU100
 332              		.loc 1 159 34 is_stmt 0 view .LVU101
 333 0026 234A     		ldr	r2, .L37+8
 334              		.loc 1 159 13 view .LVU102
 335 0028 2348     		ldr	r0, .L37+12
 336              		.loc 1 159 34 view .LVU103
 337 002a 0A44     		add	r2, r2, r1
 338              		.loc 1 159 13 view .LVU104
 339 002c 8242     		cmp	r2, r0
 340 002e 2AD9     		bls	.L28
 341              		.loc 1 164 10 is_stmt 1 view .LVU105
 342              		.loc 1 164 34 is_stmt 0 view .LVU106
ARM GAS  C:\Users\DEVELO~1\AppData\Local\Temp\cc15HDCU.s 			page 7


 343 0030 224A     		ldr	r2, .L37+16
 344              		.loc 1 164 13 view .LVU107
 345 0032 2348     		ldr	r0, .L37+20
 346              		.loc 1 164 34 view .LVU108
 347 0034 0A44     		add	r2, r2, r1
 348              		.loc 1 164 13 view .LVU109
 349 0036 8242     		cmp	r2, r0
 350 0038 28D9     		bls	.L29
 351              		.loc 1 169 10 is_stmt 1 view .LVU110
 352              		.loc 1 169 34 is_stmt 0 view .LVU111
 353 003a 224A     		ldr	r2, .L37+24
 354              		.loc 1 169 13 view .LVU112
 355 003c 2248     		ldr	r0, .L37+28
 356              		.loc 1 169 34 view .LVU113
 357 003e 0A44     		add	r2, r2, r1
 358              		.loc 1 169 13 view .LVU114
 359 0040 8242     		cmp	r2, r0
 360 0042 26D3     		bcc	.L30
 361              		.loc 1 174 10 is_stmt 1 view .LVU115
 362              		.loc 1 174 34 is_stmt 0 view .LVU116
 363 0044 214A     		ldr	r2, .L37+32
 364              		.loc 1 174 13 view .LVU117
 365 0046 2248     		ldr	r0, .L37+36
 366              		.loc 1 174 34 view .LVU118
 367 0048 0A44     		add	r2, r2, r1
 368              		.loc 1 174 13 view .LVU119
 369 004a 8242     		cmp	r2, r0
 370 004c 24D9     		bls	.L31
 371              		.loc 1 179 10 is_stmt 1 view .LVU120
 372              		.loc 1 179 34 is_stmt 0 view .LVU121
 373 004e 214A     		ldr	r2, .L37+40
 374              		.loc 1 179 13 view .LVU122
 375 0050 2148     		ldr	r0, .L37+44
 376              		.loc 1 179 34 view .LVU123
 377 0052 0A44     		add	r2, r2, r1
 378              		.loc 1 179 13 view .LVU124
 379 0054 8242     		cmp	r2, r0
 380 0056 22D3     		bcc	.L32
 381              		.loc 1 184 10 is_stmt 1 view .LVU125
 382              		.loc 1 184 34 is_stmt 0 view .LVU126
 383 0058 204A     		ldr	r2, .L37+48
 384              		.loc 1 184 13 view .LVU127
 385 005a 2148     		ldr	r0, .L37+52
 386              		.loc 1 184 34 view .LVU128
 387 005c 0A44     		add	r2, r2, r1
 388              		.loc 1 184 13 view .LVU129
 389 005e 8242     		cmp	r2, r0
 390 0060 D1D3     		bcc	.L33
 391              		.loc 1 189 10 is_stmt 1 view .LVU130
 392              		.loc 1 189 34 is_stmt 0 view .LVU131
 393 0062 204A     		ldr	r2, .L37+56
 394              		.loc 1 189 13 view .LVU132
 395 0064 2048     		ldr	r0, .L37+60
 396              		.loc 1 189 34 view .LVU133
 397 0066 0A44     		add	r2, r2, r1
 398              		.loc 1 189 13 view .LVU134
 399 0068 8242     		cmp	r2, r0
ARM GAS  C:\Users\DEVELO~1\AppData\Local\Temp\cc15HDCU.s 			page 8


 400 006a 1BD3     		bcc	.L34
 401              		.loc 1 194 10 is_stmt 1 view .LVU135
 402              		.loc 1 194 34 is_stmt 0 view .LVU136
 403 006c 1F4A     		ldr	r2, .L37+64
 404              		.loc 1 194 13 view .LVU137
 405 006e 2048     		ldr	r0, .L37+68
 406              		.loc 1 194 34 view .LVU138
 407 0070 0A44     		add	r2, r2, r1
 408              		.loc 1 194 13 view .LVU139
 409 0072 8242     		cmp	r2, r0
 410 0074 34BF     		ite	cc
 411 0076 4FF4E051 		movcc	r1, #7168
 412 007a 4FF4C051 		movcs	r1, #6144
 413              	.LVL18:
 414              		.loc 1 194 13 view .LVU140
 415 007e C4E7     		b	.L25
 416              	.LVL19:
 417              	.L27:
 418              		.loc 1 194 13 view .LVU141
 419 0080 4FF47051 		mov	r1, #15360
 420              	.LVL20:
 421              		.loc 1 194 13 view .LVU142
 422 0084 C1E7     		b	.L25
 423              	.LVL21:
 424              	.L28:
 425              		.loc 1 194 13 view .LVU143
 426 0086 4FF46051 		mov	r1, #14336
 427              	.LVL22:
 428              		.loc 1 194 13 view .LVU144
 429 008a BEE7     		b	.L25
 430              	.LVL23:
 431              	.L29:
 432              		.loc 1 194 13 view .LVU145
 433 008c 4FF45051 		mov	r1, #13312
 434              	.LVL24:
 435              		.loc 1 194 13 view .LVU146
 436 0090 BBE7     		b	.L25
 437              	.LVL25:
 438              	.L30:
 439              		.loc 1 194 13 view .LVU147
 440 0092 4FF44051 		mov	r1, #12288
 441              	.LVL26:
 442              		.loc 1 194 13 view .LVU148
 443 0096 B8E7     		b	.L25
 444              	.LVL27:
 445              	.L31:
 446              		.loc 1 194 13 view .LVU149
 447 0098 4FF43051 		mov	r1, #11264
 448              	.LVL28:
 449              		.loc 1 194 13 view .LVU150
 450 009c B5E7     		b	.L25
 451              	.LVL29:
 452              	.L32:
 453              		.loc 1 194 13 view .LVU151
 454 009e 4FF42051 		mov	r1, #10240
 455              	.LVL30:
 456              		.loc 1 194 13 view .LVU152
ARM GAS  C:\Users\DEVELO~1\AppData\Local\Temp\cc15HDCU.s 			page 9


 457 00a2 B2E7     		b	.L25
 458              	.LVL31:
 459              	.L34:
 460              		.loc 1 194 13 view .LVU153
 461 00a4 4FF40051 		mov	r1, #8192
 462              	.LVL32:
 463              		.loc 1 194 13 view .LVU154
 464 00a8 AFE7     		b	.L25
 465              	.L38:
 466 00aa 00BF     		.align	2
 467              	.L37:
 468 00ac 405327FF 		.word	-14200000
 469 00b0 FF340C00 		.word	799999
 470 00b4 401E1BFF 		.word	-15000000
 471 00b8 3F420F00 		.word	999999
 472 00bc 00DC0BFF 		.word	-16000000
 473 00c0 7F4F1200 		.word	1199999
 474 00c4 808CF9FE 		.word	-17200000
 475 00c8 20D61300 		.word	1300000
 476 00cc 60B6E5FE 		.word	-18500000
 477 00d0 5FE31600 		.word	1499999
 478 00d4 00D3CEFE 		.word	-20000000
 479 00d8 40771B00 		.word	1800000
 480 00dc C05BB3FE 		.word	-21800000
 481 00e0 C0912100 		.word	2200000
 482 00e4 00CA91FE 		.word	-24000000
 483 00e8 20753800 		.word	3700000
 484 00ec E05459FE 		.word	-27700000
 485 00f0 E09C4100 		.word	4300000
 486              		.cfi_endproc
 487              	.LFE142:
 488              		.size	USB_SetTurnaroundTime, .-USB_SetTurnaroundTime
 489              		.section	.text.USB_EnableGlobalInt,"ax",%progbits
 490              		.align	1
 491              		.p2align 4,,15
 492              		.global	USB_EnableGlobalInt
 493              		.syntax unified
 494              		.thumb
 495              		.thumb_func
 496              		.type	USB_EnableGlobalInt, %function
 497              	USB_EnableGlobalInt:
 498              	.LVL33:
 499              	.LFB143:
 500              		.loc 1 227 1 is_stmt 1 view -0
 501              		.cfi_startproc
 502              		@ args = 0, pretend = 0, frame = 0
 503              		@ frame_needed = 0, uses_anonymous_args = 0
 504              		@ link register save eliminated.
 505              		.loc 1 228 3 view .LVU156
 506              		.loc 1 227 1 is_stmt 0 view .LVU157
 507 0000 0346     		mov	r3, r0
 508              		.loc 1 230 1 view .LVU158
 509 0002 0020     		movs	r0, #0
 510              	.LVL34:
 511              		.loc 1 228 17 view .LVU159
 512 0004 9A68     		ldr	r2, [r3, #8]
 513 0006 42F00102 		orr	r2, r2, #1
ARM GAS  C:\Users\DEVELO~1\AppData\Local\Temp\cc15HDCU.s 			page 10


 514 000a 9A60     		str	r2, [r3, #8]
 515              		.loc 1 229 3 is_stmt 1 view .LVU160
 516              		.loc 1 230 1 is_stmt 0 view .LVU161
 517 000c 7047     		bx	lr
 518              		.cfi_endproc
 519              	.LFE143:
 520              		.size	USB_EnableGlobalInt, .-USB_EnableGlobalInt
 521 000e 00BF     		.section	.text.USB_DisableGlobalInt,"ax",%progbits
 522              		.align	1
 523              		.p2align 4,,15
 524              		.global	USB_DisableGlobalInt
 525              		.syntax unified
 526              		.thumb
 527              		.thumb_func
 528              		.type	USB_DisableGlobalInt, %function
 529              	USB_DisableGlobalInt:
 530              	.LVL35:
 531              	.LFB144:
 532              		.loc 1 239 1 is_stmt 1 view -0
 533              		.cfi_startproc
 534              		@ args = 0, pretend = 0, frame = 0
 535              		@ frame_needed = 0, uses_anonymous_args = 0
 536              		@ link register save eliminated.
 537              		.loc 1 240 3 view .LVU163
 538              		.loc 1 239 1 is_stmt 0 view .LVU164
 539 0000 0346     		mov	r3, r0
 540              		.loc 1 242 1 view .LVU165
 541 0002 0020     		movs	r0, #0
 542              	.LVL36:
 543              		.loc 1 240 17 view .LVU166
 544 0004 9A68     		ldr	r2, [r3, #8]
 545 0006 22F00102 		bic	r2, r2, #1
 546 000a 9A60     		str	r2, [r3, #8]
 547              		.loc 1 241 3 is_stmt 1 view .LVU167
 548              		.loc 1 242 1 is_stmt 0 view .LVU168
 549 000c 7047     		bx	lr
 550              		.cfi_endproc
 551              	.LFE144:
 552              		.size	USB_DisableGlobalInt, .-USB_DisableGlobalInt
 553 000e 00BF     		.section	.text.USB_SetCurrentMode,"ax",%progbits
 554              		.align	1
 555              		.p2align 4,,15
 556              		.global	USB_SetCurrentMode
 557              		.syntax unified
 558              		.thumb
 559              		.thumb_func
 560              		.type	USB_SetCurrentMode, %function
 561              	USB_SetCurrentMode:
 562              	.LVL37:
 563              	.LFB145:
 564              		.loc 1 254 1 is_stmt 1 view -0
 565              		.cfi_startproc
 566              		@ args = 0, pretend = 0, frame = 0
 567              		@ frame_needed = 0, uses_anonymous_args = 0
 568              		.loc 1 255 3 view .LVU170
 569              		.loc 1 257 3 view .LVU171
 570              		.loc 1 254 1 is_stmt 0 view .LVU172
ARM GAS  C:\Users\DEVELO~1\AppData\Local\Temp\cc15HDCU.s 			page 11


 571 0000 38B5     		push	{r3, r4, r5, lr}
 572              		.cfi_def_cfa_offset 16
 573              		.cfi_offset 3, -16
 574              		.cfi_offset 4, -12
 575              		.cfi_offset 5, -8
 576              		.cfi_offset 14, -4
 577              		.loc 1 257 17 view .LVU173
 578 0002 C368     		ldr	r3, [r0, #12]
 579              		.loc 1 259 6 view .LVU174
 580 0004 0129     		cmp	r1, #1
 581              		.loc 1 254 1 view .LVU175
 582 0006 0546     		mov	r5, r0
 583              		.loc 1 257 17 view .LVU176
 584 0008 23F0C043 		bic	r3, r3, #1610612736
 585 000c C360     		str	r3, [r0, #12]
 586              		.loc 1 259 3 is_stmt 1 view .LVU177
 587              		.loc 1 259 6 is_stmt 0 view .LVU178
 588 000e 17D0     		beq	.L55
 589              		.loc 1 269 8 is_stmt 1 view .LVU179
 590              		.loc 1 269 11 is_stmt 0 view .LVU180
 591 0010 A1B9     		cbnz	r1, .L46
 592              		.loc 1 271 5 is_stmt 1 view .LVU181
 593              		.loc 1 271 19 is_stmt 0 view .LVU182
 594 0012 C368     		ldr	r3, [r0, #12]
 595              		.loc 1 255 12 view .LVU183
 596 0014 0C46     		mov	r4, r1
 597              		.loc 1 271 19 view .LVU184
 598 0016 43F08043 		orr	r3, r3, #1073741824
 599 001a C360     		str	r3, [r0, #12]
 600 001c 01E0     		b	.L47
 601              	.LVL38:
 602              	.L56:
 603              		.loc 1 277 63 discriminator 1 view .LVU185
 604 001e C82C     		cmp	r4, #200
 605 0020 0CD0     		beq	.L46
 606              	.LVL39:
 607              	.L47:
 608              		.loc 1 273 5 is_stmt 1 discriminator 2 view .LVU186
 609              		.loc 1 275 7 discriminator 2 view .LVU187
 610 0022 0A20     		movs	r0, #10
 611              		.loc 1 276 10 is_stmt 0 discriminator 2 view .LVU188
 612 0024 0444     		add	r4, r4, r0
 613              	.LVL40:
 614              		.loc 1 275 7 discriminator 2 view .LVU189
 615 0026 FFF7FEFF 		bl	HAL_Delay
 616              	.LVL41:
 617              		.loc 1 276 7 is_stmt 1 discriminator 2 view .LVU190
 618              		.loc 1 277 63 discriminator 2 view .LVU191
 619              	.LBB24:
 620              	.LBI24:
 621              		.loc 1 1320 10 discriminator 2 view .LVU192
 622              	.LBB25:
 623              		.loc 1 1322 3 discriminator 2 view .LVU193
 624              		.loc 1 1322 16 is_stmt 0 discriminator 2 view .LVU194
 625 002a 6B69     		ldr	r3, [r5, #20]
 626              	.LVL42:
 627              		.loc 1 1322 16 discriminator 2 view .LVU195
ARM GAS  C:\Users\DEVELO~1\AppData\Local\Temp\cc15HDCU.s 			page 12


 628              	.LBE25:
 629              	.LBE24:
 630              		.loc 1 277 63 discriminator 2 view .LVU196
 631 002c DB07     		lsls	r3, r3, #31
 632 002e F6D4     		bmi	.L56
 633              		.loc 1 284 3 is_stmt 1 view .LVU197
 634              		.loc 1 281 12 is_stmt 0 view .LVU198
 635 0030 A4F1C800 		sub	r0, r4, #200
 636 0034 B0FA80F0 		clz	r0, r0
 637 0038 4009     		lsrs	r0, r0, #5
 638              	.L45:
 639              	.LVL43:
 640              		.loc 1 290 1 view .LVU199
 641 003a 38BD     		pop	{r3, r4, r5, pc}
 642              	.LVL44:
 643              	.L46:
 644              		.loc 1 286 12 view .LVU200
 645 003c 0120     		movs	r0, #1
 646              		.loc 1 290 1 view .LVU201
 647 003e 38BD     		pop	{r3, r4, r5, pc}
 648              	.LVL45:
 649              	.L55:
 650              		.loc 1 261 5 is_stmt 1 view .LVU202
 651              		.loc 1 261 19 is_stmt 0 view .LVU203
 652 0040 C368     		ldr	r3, [r0, #12]
 653              		.loc 1 255 12 view .LVU204
 654 0042 0024     		movs	r4, #0
 655              		.loc 1 261 19 view .LVU205
 656 0044 43F00053 		orr	r3, r3, #536870912
 657 0048 C360     		str	r3, [r0, #12]
 658 004a 01E0     		b	.L44
 659              	.LVL46:
 660              	.L57:
 661              		.loc 1 267 61 discriminator 1 view .LVU206
 662 004c C82C     		cmp	r4, #200
 663 004e F5D0     		beq	.L46
 664              	.LVL47:
 665              	.L44:
 666              		.loc 1 263 5 is_stmt 1 discriminator 2 view .LVU207
 667              		.loc 1 265 7 discriminator 2 view .LVU208
 668 0050 0A20     		movs	r0, #10
 669              		.loc 1 266 10 is_stmt 0 discriminator 2 view .LVU209
 670 0052 0444     		add	r4, r4, r0
 671              	.LVL48:
 672              		.loc 1 265 7 discriminator 2 view .LVU210
 673 0054 FFF7FEFF 		bl	HAL_Delay
 674              	.LVL49:
 675              		.loc 1 266 7 is_stmt 1 discriminator 2 view .LVU211
 676              		.loc 1 267 61 discriminator 2 view .LVU212
 677              	.LBB26:
 678              	.LBI26:
 679              		.loc 1 1320 10 discriminator 2 view .LVU213
 680              	.LBB27:
 681              		.loc 1 1322 3 discriminator 2 view .LVU214
 682              		.loc 1 1322 16 is_stmt 0 discriminator 2 view .LVU215
 683 0058 6B69     		ldr	r3, [r5, #20]
 684              	.LVL50:
ARM GAS  C:\Users\DEVELO~1\AppData\Local\Temp\cc15HDCU.s 			page 13


 685              		.loc 1 1322 16 discriminator 2 view .LVU216
 686              	.LBE27:
 687              	.LBE26:
 688              		.loc 1 267 61 discriminator 2 view .LVU217
 689 005a DA07     		lsls	r2, r3, #31
 690 005c F6D5     		bpl	.L57
 691              		.loc 1 284 3 is_stmt 1 view .LVU218
 692              		.loc 1 281 12 is_stmt 0 view .LVU219
 693 005e A4F1C800 		sub	r0, r4, #200
 694 0062 B0FA80F0 		clz	r0, r0
 695 0066 4009     		lsrs	r0, r0, #5
 696 0068 E7E7     		b	.L45
 697              		.cfi_endproc
 698              	.LFE145:
 699              		.size	USB_SetCurrentMode, .-USB_SetCurrentMode
 700 006a 00BF     		.section	.text.USB_FlushTxFifo,"ax",%progbits
 701              		.align	1
 702              		.p2align 4,,15
 703              		.global	USB_FlushTxFifo
 704              		.syntax unified
 705              		.thumb
 706              		.thumb_func
 707              		.type	USB_FlushTxFifo, %function
 708              	USB_FlushTxFifo:
 709              	.LVL51:
 710              	.LFB147:
 711              		.loc 1 453 1 is_stmt 1 view -0
 712              		.cfi_startproc
 713              		@ args = 0, pretend = 0, frame = 8
 714              		@ frame_needed = 0, uses_anonymous_args = 0
 715              		@ link register save eliminated.
 716              		.loc 1 454 3 view .LVU221
 717              		.loc 1 453 1 is_stmt 0 view .LVU222
 718 0000 82B0     		sub	sp, sp, #8
 719              		.cfi_def_cfa_offset 8
 720              		.loc 1 454 17 view .LVU223
 721 0002 0023     		movs	r3, #0
 722 0004 0193     		str	r3, [sp, #4]
 723 0006 02E0     		b	.L60
 724              	.L67:
 725              		.loc 1 465 17 view .LVU224
 726 0008 0369     		ldr	r3, [r0, #16]
 727              		.loc 1 465 53 view .LVU225
 728 000a 002B     		cmp	r3, #0
 729 000c 09DB     		blt	.L66
 730              	.L60:
 731              		.loc 1 457 3 is_stmt 1 view .LVU226
 732              		.loc 1 459 5 view .LVU227
 733              		.loc 1 465 53 view .LVU228
 734              		.loc 1 459 10 is_stmt 0 view .LVU229
 735 000e 019B     		ldr	r3, [sp, #4]
 736 0010 0133     		adds	r3, r3, #1
 737 0012 0193     		str	r3, [sp, #4]
 738              		.loc 1 461 5 is_stmt 1 view .LVU230
 739              		.loc 1 461 15 is_stmt 0 view .LVU231
 740 0014 019B     		ldr	r3, [sp, #4]
 741              		.loc 1 461 8 view .LVU232
ARM GAS  C:\Users\DEVELO~1\AppData\Local\Temp\cc15HDCU.s 			page 14


 742 0016 B3F1706F 		cmp	r3, #251658240
 743 001a F5D9     		bls	.L67
 744              	.LVL52:
 745              	.L59:
 746              		.loc 1 463 14 view .LVU233
 747 001c 0320     		movs	r0, #3
 748              	.LVL53:
 749              		.loc 1 482 1 view .LVU234
 750 001e 02B0     		add	sp, sp, #8
 751              		.cfi_remember_state
 752              		.cfi_def_cfa_offset 0
 753              		@ sp needed
 754 0020 7047     		bx	lr
 755              	.LVL54:
 756              	.L66:
 757              		.cfi_restore_state
 758              		.loc 1 468 3 is_stmt 1 view .LVU235
 759              		.loc 1 469 51 is_stmt 0 view .LVU236
 760 0022 8901     		lsls	r1, r1, #6
 761              	.LVL55:
 762              		.loc 1 468 9 view .LVU237
 763 0024 0023     		movs	r3, #0
 764              		.loc 1 469 44 view .LVU238
 765 0026 41F02001 		orr	r1, r1, #32
 766              		.loc 1 468 9 view .LVU239
 767 002a 0193     		str	r3, [sp, #4]
 768              		.loc 1 469 3 is_stmt 1 view .LVU240
 769              		.loc 1 469 17 is_stmt 0 view .LVU241
 770 002c 0161     		str	r1, [r0, #16]
 771 002e 03E0     		b	.L61
 772              	.L69:
 773              		.loc 1 479 17 view .LVU242
 774 0030 0369     		ldr	r3, [r0, #16]
 775              		.loc 1 479 54 view .LVU243
 776 0032 13F02003 		ands	r3, r3, #32
 777 0036 07D0     		beq	.L68
 778              	.L61:
 779              		.loc 1 471 3 is_stmt 1 view .LVU244
 780              		.loc 1 473 5 view .LVU245
 781              		.loc 1 479 54 view .LVU246
 782              		.loc 1 473 10 is_stmt 0 view .LVU247
 783 0038 019B     		ldr	r3, [sp, #4]
 784 003a 0133     		adds	r3, r3, #1
 785 003c 0193     		str	r3, [sp, #4]
 786              		.loc 1 475 5 is_stmt 1 view .LVU248
 787              		.loc 1 475 15 is_stmt 0 view .LVU249
 788 003e 019B     		ldr	r3, [sp, #4]
 789              		.loc 1 475 8 view .LVU250
 790 0040 B3F1706F 		cmp	r3, #251658240
 791 0044 F4D9     		bls	.L69
 792 0046 E9E7     		b	.L59
 793              	.L68:
 794              		.loc 1 481 10 view .LVU251
 795 0048 1846     		mov	r0, r3
 796              	.LVL56:
 797              		.loc 1 482 1 view .LVU252
 798 004a 02B0     		add	sp, sp, #8
ARM GAS  C:\Users\DEVELO~1\AppData\Local\Temp\cc15HDCU.s 			page 15


 799              		.cfi_def_cfa_offset 0
 800              		@ sp needed
 801 004c 7047     		bx	lr
 802              		.cfi_endproc
 803              	.LFE147:
 804              		.size	USB_FlushTxFifo, .-USB_FlushTxFifo
 805 004e 00BF     		.section	.text.USB_FlushRxFifo,"ax",%progbits
 806              		.align	1
 807              		.p2align 4,,15
 808              		.global	USB_FlushRxFifo
 809              		.syntax unified
 810              		.thumb
 811              		.thumb_func
 812              		.type	USB_FlushRxFifo, %function
 813              	USB_FlushRxFifo:
 814              	.LVL57:
 815              	.LFB148:
 816              		.loc 1 490 1 is_stmt 1 view -0
 817              		.cfi_startproc
 818              		@ args = 0, pretend = 0, frame = 8
 819              		@ frame_needed = 0, uses_anonymous_args = 0
 820              		@ link register save eliminated.
 821              		.loc 1 491 3 view .LVU254
 822              		.loc 1 490 1 is_stmt 0 view .LVU255
 823 0000 82B0     		sub	sp, sp, #8
 824              		.cfi_def_cfa_offset 8
 825              		.loc 1 491 17 view .LVU256
 826 0002 0023     		movs	r3, #0
 827 0004 0193     		str	r3, [sp, #4]
 828 0006 02E0     		b	.L72
 829              	.L79:
 830              		.loc 1 502 17 view .LVU257
 831 0008 0369     		ldr	r3, [r0, #16]
 832              		.loc 1 502 53 view .LVU258
 833 000a 002B     		cmp	r3, #0
 834 000c 09DB     		blt	.L78
 835              	.L72:
 836              		.loc 1 494 3 is_stmt 1 view .LVU259
 837              		.loc 1 496 5 view .LVU260
 838              		.loc 1 502 53 view .LVU261
 839              		.loc 1 496 10 is_stmt 0 view .LVU262
 840 000e 019B     		ldr	r3, [sp, #4]
 841 0010 0133     		adds	r3, r3, #1
 842 0012 0193     		str	r3, [sp, #4]
 843              		.loc 1 498 5 is_stmt 1 view .LVU263
 844              		.loc 1 498 15 is_stmt 0 view .LVU264
 845 0014 019B     		ldr	r3, [sp, #4]
 846              		.loc 1 498 8 view .LVU265
 847 0016 B3F1706F 		cmp	r3, #251658240
 848 001a F5D9     		bls	.L79
 849              	.L71:
 850              		.loc 1 500 14 view .LVU266
 851 001c 0320     		movs	r0, #3
 852              	.LVL58:
 853              		.loc 1 519 1 view .LVU267
 854 001e 02B0     		add	sp, sp, #8
 855              		.cfi_remember_state
ARM GAS  C:\Users\DEVELO~1\AppData\Local\Temp\cc15HDCU.s 			page 16


 856              		.cfi_def_cfa_offset 0
 857              		@ sp needed
 858 0020 7047     		bx	lr
 859              	.LVL59:
 860              	.L78:
 861              		.cfi_restore_state
 862              		.loc 1 505 3 is_stmt 1 view .LVU268
 863              		.loc 1 505 9 is_stmt 0 view .LVU269
 864 0022 0022     		movs	r2, #0
 865              		.loc 1 506 17 view .LVU270
 866 0024 1023     		movs	r3, #16
 867              		.loc 1 505 9 view .LVU271
 868 0026 0192     		str	r2, [sp, #4]
 869              		.loc 1 506 3 is_stmt 1 view .LVU272
 870              		.loc 1 506 17 is_stmt 0 view .LVU273
 871 0028 0361     		str	r3, [r0, #16]
 872 002a 03E0     		b	.L73
 873              	.L81:
 874              		.loc 1 516 17 view .LVU274
 875 002c 0369     		ldr	r3, [r0, #16]
 876              		.loc 1 516 54 view .LVU275
 877 002e 13F01003 		ands	r3, r3, #16
 878 0032 07D0     		beq	.L80
 879              	.L73:
 880              		.loc 1 508 3 is_stmt 1 view .LVU276
 881              		.loc 1 510 5 view .LVU277
 882              		.loc 1 516 54 view .LVU278
 883              		.loc 1 510 10 is_stmt 0 view .LVU279
 884 0034 019B     		ldr	r3, [sp, #4]
 885 0036 0133     		adds	r3, r3, #1
 886 0038 0193     		str	r3, [sp, #4]
 887              		.loc 1 512 5 is_stmt 1 view .LVU280
 888              		.loc 1 512 15 is_stmt 0 view .LVU281
 889 003a 019B     		ldr	r3, [sp, #4]
 890              		.loc 1 512 8 view .LVU282
 891 003c B3F1706F 		cmp	r3, #251658240
 892 0040 F4D9     		bls	.L81
 893 0042 EBE7     		b	.L71
 894              	.L80:
 895              		.loc 1 518 10 view .LVU283
 896 0044 1846     		mov	r0, r3
 897              	.LVL60:
 898              		.loc 1 519 1 view .LVU284
 899 0046 02B0     		add	sp, sp, #8
 900              		.cfi_def_cfa_offset 0
 901              		@ sp needed
 902 0048 7047     		bx	lr
 903              		.cfi_endproc
 904              	.LFE148:
 905              		.size	USB_FlushRxFifo, .-USB_FlushRxFifo
 906 004a 00BF     		.section	.text.USB_DevInit,"ax",%progbits
 907              		.align	1
 908              		.p2align 4,,15
 909              		.global	USB_DevInit
 910              		.syntax unified
 911              		.thumb
 912              		.thumb_func
ARM GAS  C:\Users\DEVELO~1\AppData\Local\Temp\cc15HDCU.s 			page 17


 913              		.type	USB_DevInit, %function
 914              	USB_DevInit:
 915              	.LVL61:
 916              	.LFB146:
 917              		.loc 1 301 1 is_stmt 1 view -0
 918              		.cfi_startproc
 919              		@ args = 20, pretend = 16, frame = 0
 920              		@ frame_needed = 0, uses_anonymous_args = 0
 921              		.loc 1 301 1 is_stmt 0 view .LVU286
 922 0000 84B0     		sub	sp, sp, #16
 923              		.cfi_def_cfa_offset 16
 924 0002 2DE9F843 		push	{r3, r4, r5, r6, r7, r8, r9, lr}
 925              		.cfi_def_cfa_offset 48
 926              		.cfi_offset 3, -48
 927              		.cfi_offset 4, -44
 928              		.cfi_offset 5, -40
 929              		.cfi_offset 6, -36
 930              		.cfi_offset 7, -32
 931              		.cfi_offset 8, -28
 932              		.cfi_offset 9, -24
 933              		.cfi_offset 14, -20
 934              		.loc 1 301 1 view .LVU287
 935 0006 09AD     		add	r5, sp, #36
 936 0008 0446     		mov	r4, r0
 937 000a 85E80E00 		stm	r5, {r1, r2, r3}
 938              		.loc 1 306 10 view .LVU288
 939 000e 0023     		movs	r3, #0
 940 0010 9DF82450 		ldrb	r5, [sp, #36]	@ zero_extendqisi2
 941              	.LVL62:
 942              		.loc 1 306 10 view .LVU289
 943 0014 9DF82E60 		ldrb	r6, [sp, #46]	@ zero_extendqisi2
 944              	.LVL63:
 945              		.loc 1 302 3 is_stmt 1 view .LVU290
 946              		.loc 1 303 3 view .LVU291
 947              		.loc 1 304 3 view .LVU292
 948              		.loc 1 306 3 view .LVU293
 949              		.loc 1 306 18 view .LVU294
 950              		.loc 1 308 22 is_stmt 0 view .LVU295
 951 0018 1946     		mov	r1, r3
 952              	.LVL64:
 953              	.L83:
 954              		.loc 1 308 5 is_stmt 1 discriminator 3 view .LVU296
 955              		.loc 1 308 22 is_stmt 0 discriminator 3 view .LVU297
 956 001a 03F14002 		add	r2, r3, #64
 957              		.loc 1 306 26 discriminator 3 view .LVU298
 958 001e 0133     		adds	r3, r3, #1
 959              	.LVL65:
 960              		.loc 1 308 22 discriminator 3 view .LVU299
 961 0020 04EB8202 		add	r2, r4, r2, lsl #2
 962              		.loc 1 306 18 discriminator 3 view .LVU300
 963 0024 0F2B     		cmp	r3, #15
 964              		.loc 1 308 22 discriminator 3 view .LVU301
 965 0026 5160     		str	r1, [r2, #4]
 966              		.loc 1 306 26 is_stmt 1 discriminator 3 view .LVU302
 967              	.LVL66:
 968              		.loc 1 306 18 discriminator 3 view .LVU303
 969 0028 F7D1     		bne	.L83
ARM GAS  C:\Users\DEVELO~1\AppData\Local\Temp\cc15HDCU.s 			page 18


 970              		.loc 1 312 3 view .LVU304
 971              		.loc 1 312 6 is_stmt 0 view .LVU305
 972 002a 002E     		cmp	r6, #0
 973 002c 40F09480 		bne	.L84
 974              		.loc 1 314 5 is_stmt 1 view .LVU306
 975              		.loc 1 314 23 is_stmt 0 view .LVU307
 976 0030 D4F80438 		ldr	r3, [r4, #2052]
 977              	.LVL67:
 978              		.loc 1 314 23 view .LVU308
 979 0034 04F50067 		add	r7, r4, #2048
 980 0038 43F00203 		orr	r3, r3, #2
 981 003c 7B60     		str	r3, [r7, #4]
 982              		.loc 1 317 5 is_stmt 1 view .LVU309
 983              		.loc 1 317 17 is_stmt 0 view .LVU310
 984 003e A36B     		ldr	r3, [r4, #56]
 985 0040 23F40013 		bic	r3, r3, #2097152
 986 0044 A363     		str	r3, [r4, #56]
 987              		.loc 1 320 5 is_stmt 1 view .LVU311
 988              		.loc 1 320 19 is_stmt 0 view .LVU312
 989 0046 2368     		ldr	r3, [r4]
 990 0048 43F04003 		orr	r3, r3, #64
 991 004c 2360     		str	r3, [r4]
 992              		.loc 1 321 5 is_stmt 1 view .LVU313
 993              		.loc 1 321 19 is_stmt 0 view .LVU314
 994 004e 2368     		ldr	r3, [r4]
 995 0050 43F08003 		orr	r3, r3, #128
 996 0054 2360     		str	r3, [r4]
 997              		.loc 1 330 3 is_stmt 1 view .LVU315
 998              		.loc 1 330 16 is_stmt 0 view .LVU316
 999 0056 0023     		movs	r3, #0
 1000 0058 C4F8003E 		str	r3, [r4, #3584]
 1001              		.loc 1 332 3 is_stmt 1 view .LVU317
 1002              		.loc 1 332 6 is_stmt 0 view .LVU318
 1003 005c 9DF82930 		ldrb	r3, [sp, #41]	@ zero_extendqisi2
 1004 0060 012B     		cmp	r3, #1
 1005 0062 00F08780 		beq	.L110
 1006              	.L86:
 1007              		.loc 1 348 5 is_stmt 1 view .LVU319
 1008              	.LVL68:
 1009              	.LBB28:
 1010              	.LBI28:
 1011              		.loc 1 532 19 view .LVU320
 1012              	.LBB29:
 1013              		.loc 1 534 3 view .LVU321
 1014              		.loc 1 536 3 view .LVU322
 1015              		.loc 1 536 21 is_stmt 0 view .LVU323
 1016 0066 3B68     		ldr	r3, [r7]
 1017 0068 43F00303 		orr	r3, r3, #3
 1018 006c 3B60     		str	r3, [r7]
 1019              		.loc 1 537 3 is_stmt 1 view .LVU324
 1020              	.LVL69:
 1021              	.L88:
 1022              		.loc 1 537 3 is_stmt 0 view .LVU325
 1023              	.LBE29:
 1024              	.LBE28:
 1025              		.loc 1 352 3 is_stmt 1 view .LVU326
 1026              		.loc 1 352 7 is_stmt 0 view .LVU327
ARM GAS  C:\Users\DEVELO~1\AppData\Local\Temp\cc15HDCU.s 			page 19


 1027 006e 1021     		movs	r1, #16
 1028 0070 2046     		mov	r0, r4
 1029              	.LVL70:
 1030              		.loc 1 352 7 view .LVU328
 1031 0072 FFF7FEFF 		bl	USB_FlushTxFifo
 1032              	.LVL71:
 1033 0076 0146     		mov	r1, r0
 1034              	.LVL72:
 1035              		.loc 1 357 3 is_stmt 1 view .LVU329
 1036              		.loc 1 357 7 is_stmt 0 view .LVU330
 1037 0078 2046     		mov	r0, r4
 1038 007a FFF7FEFF 		bl	USB_FlushRxFifo
 1039              	.LVL73:
 1040              		.loc 1 357 6 view .LVU331
 1041 007e 41EA000C 		orr	ip, r1, r0
 1042              		.loc 1 363 24 view .LVU332
 1043 0082 0022     		movs	r2, #0
 1044              		.loc 1 357 6 view .LVU333
 1045 0084 5FFA8CFC 		uxtb	ip, ip
 1046              		.loc 1 363 24 view .LVU334
 1047 0088 3A61     		str	r2, [r7, #16]
 1048              		.loc 1 359 9 view .LVU335
 1049 008a BCF1000C 		subs	ip, ip, #0
 1050              		.loc 1 364 24 view .LVU336
 1051 008e 7A61     		str	r2, [r7, #20]
 1052              		.loc 1 365 25 view .LVU337
 1053 0090 FA61     		str	r2, [r7, #28]
 1054              		.loc 1 359 9 view .LVU338
 1055 0092 18BF     		it	ne
 1056 0094 4FF0010C 		movne	ip, #1
 1057              	.LVL74:
 1058              		.loc 1 363 3 is_stmt 1 view .LVU339
 1059              		.loc 1 364 3 view .LVU340
 1060              		.loc 1 365 3 view .LVU341
 1061              		.loc 1 367 3 view .LVU342
 1062              		.loc 1 367 18 view .LVU343
 1063 0098 DDB1     		cbz	r5, .L100
 1064 009a 04F51063 		add	r3, r4, #2304
 1065              		.loc 1 377 31 is_stmt 0 view .LVU344
 1066 009e 4FF09049 		mov	r9, #1207959552
 1067              		.loc 1 373 31 view .LVU345
 1068 00a2 4FF00068 		mov	r8, #134217728
 1069              		.loc 1 382 29 view .LVU346
 1070 00a6 1046     		mov	r0, r2
 1071              		.loc 1 386 28 view .LVU347
 1072 00a8 4FF67F3E 		movw	lr, #64383
 1073 00ac 07E0     		b	.L95
 1074              	.LVL75:
 1075              	.L92:
 1076              		.loc 1 382 29 view .LVU348
 1077 00ae 1860     		str	r0, [r3]
 1078              	.L94:
 1079              		.loc 1 385 5 is_stmt 1 discriminator 2 view .LVU349
 1080              		.loc 1 367 40 is_stmt 0 discriminator 2 view .LVU350
 1081 00b0 0132     		adds	r2, r2, #1
 1082              	.LVL76:
 1083              		.loc 1 385 28 discriminator 2 view .LVU351
ARM GAS  C:\Users\DEVELO~1\AppData\Local\Temp\cc15HDCU.s 			page 20


 1084 00b2 1861     		str	r0, [r3, #16]
 1085              		.loc 1 386 5 is_stmt 1 discriminator 2 view .LVU352
 1086              		.loc 1 386 28 is_stmt 0 discriminator 2 view .LVU353
 1087 00b4 C3F808E0 		str	lr, [r3, #8]
 1088              		.loc 1 367 40 is_stmt 1 discriminator 2 view .LVU354
 1089              	.LVL77:
 1090              		.loc 1 367 18 discriminator 2 view .LVU355
 1091 00b8 2033     		adds	r3, r3, #32
 1092 00ba AA42     		cmp	r2, r5
 1093 00bc 2FD0     		beq	.L111
 1094              	.LVL78:
 1095              	.L95:
 1096              		.loc 1 369 5 view .LVU356
 1097              		.loc 1 371 7 view .LVU357
 1098              		.loc 1 382 7 view .LVU358
 1099              		.loc 1 369 22 is_stmt 0 view .LVU359
 1100 00be 1968     		ldr	r1, [r3]
 1101              		.loc 1 369 8 view .LVU360
 1102 00c0 0029     		cmp	r1, #0
 1103 00c2 F4DA     		bge	.L92
 1104              		.loc 1 373 9 is_stmt 1 view .LVU361
 1105              		.loc 1 377 9 view .LVU362
 1106              		.loc 1 371 10 is_stmt 0 view .LVU363
 1107 00c4 12B9     		cbnz	r2, .L93
 1108              		.loc 1 373 31 view .LVU364
 1109 00c6 C3F80080 		str	r8, [r3]
 1110 00ca F1E7     		b	.L94
 1111              	.L93:
 1112              		.loc 1 377 31 view .LVU365
 1113 00cc C3F80090 		str	r9, [r3]
 1114 00d0 EEE7     		b	.L94
 1115              	.LVL79:
 1116              	.L100:
 1117              		.loc 1 411 3 is_stmt 1 view .LVU366
 1118              		.loc 1 411 24 is_stmt 0 view .LVU367
 1119 00d2 3B69     		ldr	r3, [r7, #16]
 1120              		.loc 1 414 17 view .LVU368
 1121 00d4 0022     		movs	r2, #0
 1122              		.loc 1 411 24 view .LVU369
 1123 00d6 23F48073 		bic	r3, r3, #256
 1124 00da 3B61     		str	r3, [r7, #16]
 1125              		.loc 1 414 3 is_stmt 1 view .LVU370
 1126              		.loc 1 417 17 is_stmt 0 view .LVU371
 1127 00dc 6FF08043 		mvn	r3, #1073741824
 1128              		.loc 1 414 17 view .LVU372
 1129 00e0 A261     		str	r2, [r4, #24]
 1130              		.loc 1 417 3 is_stmt 1 view .LVU373
 1131              		.loc 1 417 17 is_stmt 0 view .LVU374
 1132 00e2 6361     		str	r3, [r4, #20]
 1133              		.loc 1 420 3 is_stmt 1 view .LVU375
 1134              		.loc 1 420 6 is_stmt 0 view .LVU376
 1135 00e4 9DF82630 		ldrb	r3, [sp, #38]	@ zero_extendqisi2
 1136 00e8 1BB9     		cbnz	r3, .L91
 1137              		.loc 1 422 5 is_stmt 1 view .LVU377
 1138              		.loc 1 422 19 is_stmt 0 view .LVU378
 1139 00ea A369     		ldr	r3, [r4, #24]
 1140 00ec 43F01003 		orr	r3, r3, #16
ARM GAS  C:\Users\DEVELO~1\AppData\Local\Temp\cc15HDCU.s 			page 21


 1141 00f0 A361     		str	r3, [r4, #24]
 1142              	.L91:
 1143              		.loc 1 426 3 is_stmt 1 view .LVU379
 1144              		.loc 1 426 17 is_stmt 0 view .LVU380
 1145 00f2 A269     		ldr	r2, [r4, #24]
 1146 00f4 254B     		ldr	r3, .L113
 1147 00f6 1343     		orrs	r3, r3, r2
 1148              		.loc 1 431 6 view .LVU381
 1149 00f8 9DF82A20 		ldrb	r2, [sp, #42]	@ zero_extendqisi2
 1150              		.loc 1 426 17 view .LVU382
 1151 00fc A361     		str	r3, [r4, #24]
 1152              		.loc 1 431 3 is_stmt 1 view .LVU383
 1153              		.loc 1 431 6 is_stmt 0 view .LVU384
 1154 00fe 1AB1     		cbz	r2, .L101
 1155              		.loc 1 433 5 is_stmt 1 view .LVU385
 1156              		.loc 1 433 19 is_stmt 0 view .LVU386
 1157 0100 A369     		ldr	r3, [r4, #24]
 1158 0102 43F00803 		orr	r3, r3, #8
 1159 0106 A361     		str	r3, [r4, #24]
 1160              	.L101:
 1161              		.loc 1 436 3 is_stmt 1 view .LVU387
 1162              		.loc 1 436 6 is_stmt 0 view .LVU388
 1163 0108 012E     		cmp	r6, #1
 1164 010a 03D1     		bne	.L102
 1165              		.loc 1 438 5 is_stmt 1 view .LVU389
 1166              		.loc 1 438 19 is_stmt 0 view .LVU390
 1167 010c A269     		ldr	r2, [r4, #24]
 1168 010e 204B     		ldr	r3, .L113+4
 1169 0110 1343     		orrs	r3, r3, r2
 1170 0112 A361     		str	r3, [r4, #24]
 1171              	.L102:
 1172              		.loc 1 441 3 is_stmt 1 view .LVU391
 1173              		.loc 1 442 1 is_stmt 0 view .LVU392
 1174 0114 6046     		mov	r0, ip
 1175 0116 BDE8F843 		pop	{r3, r4, r5, r6, r7, r8, r9, lr}
 1176              		.cfi_remember_state
 1177              		.cfi_restore 14
 1178              		.cfi_restore 9
 1179              		.cfi_restore 8
 1180              		.cfi_restore 7
 1181              		.cfi_restore 6
 1182              		.cfi_restore 5
 1183              		.cfi_restore 4
 1184              		.cfi_restore 3
 1185              		.cfi_def_cfa_offset 16
 1186              	.LVL80:
 1187              		.loc 1 442 1 view .LVU393
 1188 011a 04B0     		add	sp, sp, #16
 1189              		.cfi_def_cfa_offset 0
 1190 011c 7047     		bx	lr
 1191              	.LVL81:
 1192              	.L111:
 1193              		.cfi_restore_state
 1194              		.loc 1 367 18 view .LVU394
 1195 011e 0022     		movs	r2, #0
 1196              	.LVL82:
 1197              		.loc 1 367 18 view .LVU395
ARM GAS  C:\Users\DEVELO~1\AppData\Local\Temp\cc15HDCU.s 			page 22


 1198 0120 04F53063 		add	r3, r4, #2816
 1199              		.loc 1 399 32 view .LVU396
 1200 0124 4FF09048 		mov	r8, #1207959552
 1201              		.loc 1 395 32 view .LVU397
 1202 0128 4FF00069 		mov	r9, #134217728
 1203              		.loc 1 404 30 view .LVU398
 1204 012c 1046     		mov	r0, r2
 1205              		.loc 1 408 29 view .LVU399
 1206 012e 4FF67F3E 		movw	lr, #64383
 1207 0132 07E0     		b	.L99
 1208              	.LVL83:
 1209              	.L96:
 1210              		.loc 1 404 30 view .LVU400
 1211 0134 1860     		str	r0, [r3]
 1212              	.L98:
 1213              		.loc 1 407 5 is_stmt 1 discriminator 2 view .LVU401
 1214              		.loc 1 389 40 is_stmt 0 discriminator 2 view .LVU402
 1215 0136 0132     		adds	r2, r2, #1
 1216              	.LVL84:
 1217              		.loc 1 407 29 discriminator 2 view .LVU403
 1218 0138 1861     		str	r0, [r3, #16]
 1219              		.loc 1 408 5 is_stmt 1 discriminator 2 view .LVU404
 1220              		.loc 1 408 29 is_stmt 0 discriminator 2 view .LVU405
 1221 013a C3F808E0 		str	lr, [r3, #8]
 1222              		.loc 1 389 40 is_stmt 1 discriminator 2 view .LVU406
 1223              	.LVL85:
 1224              		.loc 1 389 18 discriminator 2 view .LVU407
 1225 013e 2033     		adds	r3, r3, #32
 1226 0140 AA42     		cmp	r2, r5
 1227 0142 C6D0     		beq	.L100
 1228              	.LVL86:
 1229              	.L99:
 1230              		.loc 1 391 5 view .LVU408
 1231              		.loc 1 393 7 view .LVU409
 1232              		.loc 1 404 7 view .LVU410
 1233              		.loc 1 391 23 is_stmt 0 view .LVU411
 1234 0144 1968     		ldr	r1, [r3]
 1235              		.loc 1 391 8 view .LVU412
 1236 0146 0029     		cmp	r1, #0
 1237 0148 F4DA     		bge	.L96
 1238              		.loc 1 399 9 is_stmt 1 view .LVU413
 1239              		.loc 1 393 10 is_stmt 0 view .LVU414
 1240 014a 12B1     		cbz	r2, .L112
 1241              		.loc 1 399 32 view .LVU415
 1242 014c C3F80080 		str	r8, [r3]
 1243 0150 F1E7     		b	.L98
 1244              	.L112:
 1245              		.loc 1 395 9 is_stmt 1 view .LVU416
 1246              		.loc 1 395 32 is_stmt 0 view .LVU417
 1247 0152 C3F80090 		str	r9, [r3]
 1248 0156 EEE7     		b	.L98
 1249              	.LVL87:
 1250              	.L84:
 1251              		.loc 1 326 5 is_stmt 1 view .LVU418
 1252              		.loc 1 326 17 is_stmt 0 view .LVU419
 1253 0158 A36B     		ldr	r3, [r4, #56]
 1254              	.LVL88:
ARM GAS  C:\Users\DEVELO~1\AppData\Local\Temp\cc15HDCU.s 			page 23


 1255              		.loc 1 314 23 view .LVU420
 1256 015a 04F50067 		add	r7, r4, #2048
 1257              		.loc 1 326 17 view .LVU421
 1258 015e 43F40013 		orr	r3, r3, #2097152
 1259 0162 A363     		str	r3, [r4, #56]
 1260              		.loc 1 330 3 is_stmt 1 view .LVU422
 1261              		.loc 1 330 16 is_stmt 0 view .LVU423
 1262 0164 0023     		movs	r3, #0
 1263 0166 C4F8003E 		str	r3, [r4, #3584]
 1264              		.loc 1 332 3 is_stmt 1 view .LVU424
 1265              		.loc 1 332 6 is_stmt 0 view .LVU425
 1266 016a 9DF82930 		ldrb	r3, [sp, #41]	@ zero_extendqisi2
 1267 016e 012B     		cmp	r3, #1
 1268 0170 7FF479AF 		bne	.L86
 1269              	.L110:
 1270              		.loc 1 334 5 is_stmt 1 view .LVU426
 1271              		.loc 1 334 8 is_stmt 0 view .LVU427
 1272 0174 9DF82730 		ldrb	r3, [sp, #39]	@ zero_extendqisi2
 1273 0178 13B9     		cbnz	r3, .L87
 1274              		.loc 1 337 7 is_stmt 1 view .LVU428
 1275              	.LVL89:
 1276              	.LBB30:
 1277              	.LBI30:
 1278              		.loc 1 532 19 view .LVU429
 1279              	.LBB31:
 1280              		.loc 1 534 3 view .LVU430
 1281              		.loc 1 536 3 view .LVU431
 1282              		.loc 1 536 21 is_stmt 0 view .LVU432
 1283 017a 3B68     		ldr	r3, [r7]
 1284 017c 3B60     		str	r3, [r7]
 1285              		.loc 1 537 3 is_stmt 1 view .LVU433
 1286              		.loc 1 537 10 is_stmt 0 view .LVU434
 1287 017e 76E7     		b	.L88
 1288              	.LVL90:
 1289              	.L87:
 1290              		.loc 1 537 10 view .LVU435
 1291              	.LBE31:
 1292              	.LBE30:
 1293              		.loc 1 342 7 is_stmt 1 view .LVU436
 1294              	.LBB32:
 1295              	.LBI32:
 1296              		.loc 1 532 19 view .LVU437
 1297              	.LBB33:
 1298              		.loc 1 534 3 view .LVU438
 1299              		.loc 1 536 3 view .LVU439
 1300              		.loc 1 536 21 is_stmt 0 view .LVU440
 1301 0180 3B68     		ldr	r3, [r7]
 1302 0182 43F00103 		orr	r3, r3, #1
 1303 0186 3B60     		str	r3, [r7]
 1304              		.loc 1 537 3 is_stmt 1 view .LVU441
 1305              		.loc 1 537 10 is_stmt 0 view .LVU442
 1306 0188 71E7     		b	.L88
 1307              	.L114:
 1308 018a 00BF     		.align	2
 1309              	.L113:
 1310 018c 00383C80 		.word	-2143537152
 1311 0190 04000040 		.word	1073741828
ARM GAS  C:\Users\DEVELO~1\AppData\Local\Temp\cc15HDCU.s 			page 24


 1312              	.LBE33:
 1313              	.LBE32:
 1314              		.cfi_endproc
 1315              	.LFE146:
 1316              		.size	USB_DevInit, .-USB_DevInit
 1317              		.section	.text.USB_SetDevSpeed,"ax",%progbits
 1318              		.align	1
 1319              		.p2align 4,,15
 1320              		.global	USB_SetDevSpeed
 1321              		.syntax unified
 1322              		.thumb
 1323              		.thumb_func
 1324              		.type	USB_SetDevSpeed, %function
 1325              	USB_SetDevSpeed:
 1326              	.LVL91:
 1327              	.LFB149:
 1328              		.loc 1 533 1 is_stmt 1 view -0
 1329              		.cfi_startproc
 1330              		@ args = 0, pretend = 0, frame = 0
 1331              		@ frame_needed = 0, uses_anonymous_args = 0
 1332              		@ link register save eliminated.
 1333              		.loc 1 534 3 view .LVU444
 1334              		.loc 1 533 1 is_stmt 0 view .LVU445
 1335 0000 0346     		mov	r3, r0
 1336              		.loc 1 538 1 view .LVU446
 1337 0002 0020     		movs	r0, #0
 1338              	.LVL92:
 1339              		.loc 1 536 3 is_stmt 1 view .LVU447
 1340              		.loc 1 536 21 is_stmt 0 view .LVU448
 1341 0004 D3F80028 		ldr	r2, [r3, #2048]
 1342 0008 1143     		orrs	r1, r1, r2
 1343              	.LVL93:
 1344              		.loc 1 536 21 view .LVU449
 1345 000a C3F80018 		str	r1, [r3, #2048]
 1346              		.loc 1 537 3 is_stmt 1 view .LVU450
 1347              		.loc 1 538 1 is_stmt 0 view .LVU451
 1348 000e 7047     		bx	lr
 1349              		.cfi_endproc
 1350              	.LFE149:
 1351              		.size	USB_SetDevSpeed, .-USB_SetDevSpeed
 1352              		.section	.text.USB_GetDevSpeed,"ax",%progbits
 1353              		.align	1
 1354              		.p2align 4,,15
 1355              		.global	USB_GetDevSpeed
 1356              		.syntax unified
 1357              		.thumb
 1358              		.thumb_func
 1359              		.type	USB_GetDevSpeed, %function
 1360              	USB_GetDevSpeed:
 1361              	.LVL94:
 1362              	.LFB150:
 1363              		.loc 1 549 1 is_stmt 1 view -0
 1364              		.cfi_startproc
 1365              		@ args = 0, pretend = 0, frame = 0
 1366              		@ frame_needed = 0, uses_anonymous_args = 0
 1367              		@ link register save eliminated.
 1368              		.loc 1 550 3 view .LVU453
ARM GAS  C:\Users\DEVELO~1\AppData\Local\Temp\cc15HDCU.s 			page 25


 1369              		.loc 1 551 3 view .LVU454
 1370              		.loc 1 552 3 view .LVU455
 1371              		.loc 1 552 38 is_stmt 0 view .LVU456
 1372 0000 D0F80838 		ldr	r3, [r0, #2056]
 1373              	.LVL95:
 1374              		.loc 1 554 3 is_stmt 1 view .LVU457
 1375              		.loc 1 554 6 is_stmt 0 view .LVU458
 1376 0004 13F00600 		ands	r0, r3, #6
 1377              	.LVL96:
 1378              		.loc 1 554 6 view .LVU459
 1379 0008 04D0     		beq	.L117
 1380              		.loc 1 558 8 is_stmt 1 view .LVU460
 1381              		.loc 1 565 11 is_stmt 0 view .LVU461
 1382 000a 13F0020F 		tst	r3, #2
 1383 000e 14BF     		ite	ne
 1384 0010 0220     		movne	r0, #2
 1385              	.LVL97:
 1386              		.loc 1 565 11 view .LVU462
 1387 0012 0F20     		moveq	r0, #15
 1388              	.L117:
 1389              	.LVL98:
 1390              		.loc 1 568 3 is_stmt 1 view .LVU463
 1391              		.loc 1 569 1 is_stmt 0 view .LVU464
 1392 0014 7047     		bx	lr
 1393              		.cfi_endproc
 1394              	.LFE150:
 1395              		.size	USB_GetDevSpeed, .-USB_GetDevSpeed
 1396 0016 00BF     		.section	.text.USB_ActivateEndpoint,"ax",%progbits
 1397              		.align	1
 1398              		.p2align 4,,15
 1399              		.global	USB_ActivateEndpoint
 1400              		.syntax unified
 1401              		.thumb
 1402              		.thumb_func
 1403              		.type	USB_ActivateEndpoint, %function
 1404              	USB_ActivateEndpoint:
 1405              	.LVL99:
 1406              	.LFB151:
 1407              		.loc 1 578 1 is_stmt 1 view -0
 1408              		.cfi_startproc
 1409              		@ args = 0, pretend = 0, frame = 0
 1410              		@ frame_needed = 0, uses_anonymous_args = 0
 1411              		@ link register save eliminated.
 1412              		.loc 1 579 3 view .LVU466
 1413              		.loc 1 580 3 view .LVU467
 1414              		.loc 1 578 1 is_stmt 0 view .LVU468
 1415 0000 30B4     		push	{r4, r5}
 1416              		.cfi_def_cfa_offset 8
 1417              		.cfi_offset 4, -8
 1418              		.cfi_offset 5, -4
 1419              		.loc 1 582 6 view .LVU469
 1420 0002 4B78     		ldrb	r3, [r1, #1]	@ zero_extendqisi2
 1421              		.loc 1 580 32 view .LVU470
 1422 0004 0A78     		ldrb	r2, [r1]	@ zero_extendqisi2
 1423              	.LVL100:
 1424              		.loc 1 582 3 is_stmt 1 view .LVU471
 1425              		.loc 1 582 6 is_stmt 0 view .LVU472
ARM GAS  C:\Users\DEVELO~1\AppData\Local\Temp\cc15HDCU.s 			page 26


 1426 0006 012B     		cmp	r3, #1
 1427 0008 20D0     		beq	.L126
 1428              		.loc 1 596 5 is_stmt 1 view .LVU473
 1429              		.loc 1 596 82 is_stmt 0 view .LVU474
 1430 000a 02F00F0C 		and	ip, r2, #15
 1431              		.loc 1 596 55 view .LVU475
 1432 000e 4FF48033 		mov	r3, #65536
 1433              		.loc 1 596 27 view .LVU476
 1434 0012 D0F81C48 		ldr	r4, [r0, #2076]
 1435              		.loc 1 598 11 view .LVU477
 1436 0016 00EB4212 		add	r2, r0, r2, lsl #5
 1437              	.LVL101:
 1438              		.loc 1 596 52 view .LVU478
 1439 001a 03FA0CF3 		lsl	r3, r3, ip
 1440              		.loc 1 596 27 view .LVU479
 1441 001e 2343     		orrs	r3, r3, r4
 1442 0020 C0F81C38 		str	r3, [r0, #2076]
 1443              	.LVL102:
 1444              		.loc 1 598 5 is_stmt 1 view .LVU480
 1445              		.loc 1 598 28 is_stmt 0 view .LVU481
 1446 0024 D2F8003B 		ldr	r3, [r2, #2816]
 1447              		.loc 1 598 8 view .LVU482
 1448 0028 1B04     		lsls	r3, r3, #16
 1449 002a 0CD4     		bmi	.L123
 1450              		.loc 1 600 7 is_stmt 1 view .LVU483
 1451              		.loc 1 600 52 is_stmt 0 view .LVU484
 1452 002c 8B68     		ldr	r3, [r1, #8]
 1453              		.loc 1 600 34 view .LVU485
 1454 002e D2F8004B 		ldr	r4, [r2, #2816]
 1455              		.loc 1 600 52 view .LVU486
 1456 0032 C3F30A03 		ubfx	r3, r3, #0, #11
 1457              		.loc 1 601 38 view .LVU487
 1458 0036 0879     		ldrb	r0, [r1, #4]	@ zero_extendqisi2
 1459              	.LVL103:
 1460              		.loc 1 600 34 view .LVU488
 1461 0038 1449     		ldr	r1, .L127
 1462              	.LVL104:
 1463              		.loc 1 600 34 view .LVU489
 1464 003a 2343     		orrs	r3, r3, r4
 1465 003c 43EA8043 		orr	r3, r3, r0, lsl #18
 1466 0040 1943     		orrs	r1, r1, r3
 1467 0042 C2F8001B 		str	r1, [r2, #2816]
 1468              	.L123:
 1469              		.loc 1 606 3 is_stmt 1 view .LVU490
 1470              		.loc 1 607 1 is_stmt 0 view .LVU491
 1471 0046 0020     		movs	r0, #0
 1472 0048 30BC     		pop	{r4, r5}
 1473              		.cfi_remember_state
 1474              		.cfi_restore 5
 1475              		.cfi_restore 4
 1476              		.cfi_def_cfa_offset 0
 1477 004a 7047     		bx	lr
 1478              	.LVL105:
 1479              	.L126:
 1480              		.cfi_restore_state
 1481              		.loc 1 584 5 is_stmt 1 view .LVU492
 1482              		.loc 1 584 27 is_stmt 0 view .LVU493
ARM GAS  C:\Users\DEVELO~1\AppData\Local\Temp\cc15HDCU.s 			page 27


 1483 004c 00F50064 		add	r4, r0, #2048
 1484              		.loc 1 584 81 view .LVU494
 1485 0050 02F00F05 		and	r5, r2, #15
 1486              		.loc 1 586 10 view .LVU495
 1487 0054 00EB4210 		add	r0, r0, r2, lsl #5
 1488              	.LVL106:
 1489              		.loc 1 584 54 view .LVU496
 1490 0058 AB40     		lsls	r3, r3, r5
 1491              		.loc 1 584 27 view .LVU497
 1492 005a E569     		ldr	r5, [r4, #28]
 1493 005c 2B43     		orrs	r3, r3, r5
 1494 005e E361     		str	r3, [r4, #28]
 1495              		.loc 1 586 5 is_stmt 1 view .LVU498
 1496              		.loc 1 586 26 is_stmt 0 view .LVU499
 1497 0060 D0F80039 		ldr	r3, [r0, #2304]
 1498              		.loc 1 586 8 view .LVU500
 1499 0064 1C04     		lsls	r4, r3, #16
 1500              	.LVL107:
 1501              		.loc 1 586 8 view .LVU501
 1502 0066 EED4     		bmi	.L123
 1503              		.loc 1 588 7 is_stmt 1 view .LVU502
 1504              		.loc 1 588 51 is_stmt 0 view .LVU503
 1505 0068 8B68     		ldr	r3, [r1, #8]
 1506              		.loc 1 588 33 view .LVU504
 1507 006a D0F80059 		ldr	r5, [r0, #2304]
 1508              		.loc 1 588 51 view .LVU505
 1509 006e C3F30A03 		ubfx	r3, r3, #0, #11
 1510              		.loc 1 589 37 view .LVU506
 1511 0072 0C79     		ldrb	r4, [r1, #4]	@ zero_extendqisi2
 1512              		.loc 1 588 33 view .LVU507
 1513 0074 0549     		ldr	r1, .L127
 1514              	.LVL108:
 1515              		.loc 1 588 33 view .LVU508
 1516 0076 2B43     		orrs	r3, r3, r5
 1517 0078 43EA8443 		orr	r3, r3, r4, lsl #18
 1518 007c 43EA8253 		orr	r3, r3, r2, lsl #22
 1519 0080 1943     		orrs	r1, r1, r3
 1520              		.loc 1 607 1 view .LVU509
 1521 0082 30BC     		pop	{r4, r5}
 1522              		.cfi_restore 5
 1523              		.cfi_restore 4
 1524              		.cfi_def_cfa_offset 0
 1525              		.loc 1 588 33 view .LVU510
 1526 0084 C0F80019 		str	r1, [r0, #2304]
 1527              		.loc 1 606 3 is_stmt 1 view .LVU511
 1528              		.loc 1 607 1 is_stmt 0 view .LVU512
 1529 0088 0020     		movs	r0, #0
 1530 008a 7047     		bx	lr
 1531              	.L128:
 1532              		.align	2
 1533              	.L127:
 1534 008c 00800010 		.word	268468224
 1535              		.cfi_endproc
 1536              	.LFE151:
 1537              		.size	USB_ActivateEndpoint, .-USB_ActivateEndpoint
 1538              		.section	.text.USB_ActivateDedicatedEndpoint,"ax",%progbits
 1539              		.align	1
ARM GAS  C:\Users\DEVELO~1\AppData\Local\Temp\cc15HDCU.s 			page 28


 1540              		.p2align 4,,15
 1541              		.global	USB_ActivateDedicatedEndpoint
 1542              		.syntax unified
 1543              		.thumb
 1544              		.thumb_func
 1545              		.type	USB_ActivateDedicatedEndpoint, %function
 1546              	USB_ActivateDedicatedEndpoint:
 1547              	.LVL109:
 1548              	.LFB152:
 1549              		.loc 1 616 1 is_stmt 1 view -0
 1550              		.cfi_startproc
 1551              		@ args = 0, pretend = 0, frame = 0
 1552              		@ frame_needed = 0, uses_anonymous_args = 0
 1553              		@ link register save eliminated.
 1554              		.loc 1 617 3 view .LVU514
 1555              		.loc 1 618 3 view .LVU515
 1556              		.loc 1 616 1 is_stmt 0 view .LVU516
 1557 0000 10B4     		push	{r4}
 1558              		.cfi_def_cfa_offset 4
 1559              		.cfi_offset 4, -4
 1560              		.loc 1 621 6 view .LVU517
 1561 0002 4A78     		ldrb	r2, [r1, #1]	@ zero_extendqisi2
 1562              		.loc 1 618 32 view .LVU518
 1563 0004 0B78     		ldrb	r3, [r1]	@ zero_extendqisi2
 1564              	.LVL110:
 1565              		.loc 1 621 3 is_stmt 1 view .LVU519
 1566              		.loc 1 621 6 is_stmt 0 view .LVU520
 1567 0006 012A     		cmp	r2, #1
 1568              		.loc 1 623 11 view .LVU521
 1569 0008 00EB431C 		add	ip, r0, r3, lsl #5
 1570              		.loc 1 621 6 view .LVU522
 1571 000c 21D0     		beq	.L135
 1572              		.loc 1 635 5 is_stmt 1 view .LVU523
 1573              		.loc 1 635 28 is_stmt 0 view .LVU524
 1574 000e DCF8002B 		ldr	r2, [ip, #2816]
 1575              		.loc 1 635 8 view .LVU525
 1576 0012 1204     		lsls	r2, r2, #16
 1577 0014 0DD5     		bpl	.L136
 1578              	.LVL111:
 1579              	.L133:
 1580              		.loc 1 642 5 is_stmt 1 view .LVU526
 1581              		.loc 1 642 82 is_stmt 0 view .LVU527
 1582 0016 03F00F03 		and	r3, r3, #15
 1583              	.LVL112:
 1584              		.loc 1 642 55 view .LVU528
 1585 001a 4FF48032 		mov	r2, #65536
 1586              		.loc 1 642 27 view .LVU529
 1587 001e D0F83C18 		ldr	r1, [r0, #2108]
 1588              		.loc 1 642 52 view .LVU530
 1589 0022 02FA03F3 		lsl	r3, r2, r3
 1590              		.loc 1 646 1 view .LVU531
 1591 0026 10BC     		pop	{r4}
 1592              		.cfi_remember_state
 1593              		.cfi_restore 4
 1594              		.cfi_def_cfa_offset 0
 1595              		.loc 1 642 27 view .LVU532
 1596 0028 0B43     		orrs	r3, r3, r1
ARM GAS  C:\Users\DEVELO~1\AppData\Local\Temp\cc15HDCU.s 			page 29


 1597 002a C0F83C38 		str	r3, [r0, #2108]
 1598              		.loc 1 645 3 is_stmt 1 view .LVU533
 1599              		.loc 1 646 1 is_stmt 0 view .LVU534
 1600 002e 0020     		movs	r0, #0
 1601              	.LVL113:
 1602              		.loc 1 646 1 view .LVU535
 1603 0030 7047     		bx	lr
 1604              	.LVL114:
 1605              	.L136:
 1606              		.cfi_restore_state
 1607              		.loc 1 637 7 is_stmt 1 view .LVU536
 1608              		.loc 1 637 52 is_stmt 0 view .LVU537
 1609 0032 8A68     		ldr	r2, [r1, #8]
 1610              		.loc 1 637 34 view .LVU538
 1611 0034 DCF8004B 		ldr	r4, [ip, #2816]
 1612              		.loc 1 637 52 view .LVU539
 1613 0038 C2F30A02 		ubfx	r2, r2, #0, #11
 1614              		.loc 1 638 38 view .LVU540
 1615 003c 0979     		ldrb	r1, [r1, #4]	@ zero_extendqisi2
 1616              	.LVL115:
 1617              		.loc 1 637 34 view .LVU541
 1618 003e 2243     		orrs	r2, r2, r4
 1619 0040 42EA8142 		orr	r2, r2, r1, lsl #18
 1620 0044 42EA8352 		orr	r2, r2, r3, lsl #22
 1621 0048 42F40042 		orr	r2, r2, #32768
 1622 004c CCF8002B 		str	r2, [ip, #2816]
 1623 0050 E1E7     		b	.L133
 1624              	.LVL116:
 1625              	.L135:
 1626              		.loc 1 623 5 is_stmt 1 view .LVU542
 1627              		.loc 1 623 27 is_stmt 0 view .LVU543
 1628 0052 DCF80029 		ldr	r2, [ip, #2304]
 1629              		.loc 1 623 8 view .LVU544
 1630 0056 1404     		lsls	r4, r2, #16
 1631 0058 0ED4     		bmi	.L131
 1632              		.loc 1 625 7 is_stmt 1 view .LVU545
 1633              		.loc 1 625 51 is_stmt 0 view .LVU546
 1634 005a 8A68     		ldr	r2, [r1, #8]
 1635              		.loc 1 625 33 view .LVU547
 1636 005c DCF80049 		ldr	r4, [ip, #2304]
 1637              		.loc 1 625 51 view .LVU548
 1638 0060 C2F30A02 		ubfx	r2, r2, #0, #11
 1639              		.loc 1 626 37 view .LVU549
 1640 0064 0979     		ldrb	r1, [r1, #4]	@ zero_extendqisi2
 1641              	.LVL117:
 1642              		.loc 1 625 33 view .LVU550
 1643 0066 2243     		orrs	r2, r2, r4
 1644 0068 42EA8142 		orr	r2, r2, r1, lsl #18
 1645 006c 0849     		ldr	r1, .L137
 1646 006e 42EA8352 		orr	r2, r2, r3, lsl #22
 1647 0072 1143     		orrs	r1, r1, r2
 1648 0074 CCF80019 		str	r1, [ip, #2304]
 1649              	.L131:
 1650              		.loc 1 631 5 is_stmt 1 view .LVU551
 1651              		.loc 1 631 81 is_stmt 0 view .LVU552
 1652 0078 03F00F01 		and	r1, r3, #15
 1653              		.loc 1 631 54 view .LVU553
ARM GAS  C:\Users\DEVELO~1\AppData\Local\Temp\cc15HDCU.s 			page 30


 1654 007c 0123     		movs	r3, #1
 1655              	.LVL118:
 1656              		.loc 1 631 27 view .LVU554
 1657 007e D0F83C28 		ldr	r2, [r0, #2108]
 1658              		.loc 1 631 54 view .LVU555
 1659 0082 8B40     		lsls	r3, r3, r1
 1660              		.loc 1 646 1 view .LVU556
 1661 0084 10BC     		pop	{r4}
 1662              		.cfi_restore 4
 1663              		.cfi_def_cfa_offset 0
 1664              		.loc 1 631 27 view .LVU557
 1665 0086 1343     		orrs	r3, r3, r2
 1666 0088 C0F83C38 		str	r3, [r0, #2108]
 1667              		.loc 1 645 3 is_stmt 1 view .LVU558
 1668              		.loc 1 646 1 is_stmt 0 view .LVU559
 1669 008c 0020     		movs	r0, #0
 1670              	.LVL119:
 1671              		.loc 1 646 1 view .LVU560
 1672 008e 7047     		bx	lr
 1673              	.L138:
 1674              		.align	2
 1675              	.L137:
 1676 0090 00800010 		.word	268468224
 1677              		.cfi_endproc
 1678              	.LFE152:
 1679              		.size	USB_ActivateDedicatedEndpoint, .-USB_ActivateDedicatedEndpoint
 1680              		.section	.text.USB_DeactivateEndpoint,"ax",%progbits
 1681              		.align	1
 1682              		.p2align 4,,15
 1683              		.global	USB_DeactivateEndpoint
 1684              		.syntax unified
 1685              		.thumb
 1686              		.thumb_func
 1687              		.type	USB_DeactivateEndpoint, %function
 1688              	USB_DeactivateEndpoint:
 1689              	.LVL120:
 1690              	.LFB153:
 1691              		.loc 1 655 1 is_stmt 1 view -0
 1692              		.cfi_startproc
 1693              		@ args = 0, pretend = 0, frame = 0
 1694              		@ frame_needed = 0, uses_anonymous_args = 0
 1695              		@ link register save eliminated.
 1696              		.loc 1 656 3 view .LVU562
 1697              		.loc 1 657 3 view .LVU563
 1698              		.loc 1 660 6 is_stmt 0 view .LVU564
 1699 0000 4A78     		ldrb	r2, [r1, #1]	@ zero_extendqisi2
 1700              		.loc 1 657 32 view .LVU565
 1701 0002 0B78     		ldrb	r3, [r1]	@ zero_extendqisi2
 1702              	.LVL121:
 1703              		.loc 1 660 3 is_stmt 1 view .LVU566
 1704              		.loc 1 660 6 is_stmt 0 view .LVU567
 1705 0004 012A     		cmp	r2, #1
 1706              		.loc 1 662 10 view .LVU568
 1707 0006 00EB431C 		add	ip, r0, r3, lsl #5
 1708              		.loc 1 660 6 view .LVU569
 1709 000a 2AD0     		beq	.L144
 1710              		.loc 1 678 5 is_stmt 1 view .LVU570
ARM GAS  C:\Users\DEVELO~1\AppData\Local\Temp\cc15HDCU.s 			page 31


 1711              		.loc 1 678 27 is_stmt 0 view .LVU571
 1712 000c DCF8002B 		ldr	r2, [ip, #2816]
 1713              		.loc 1 678 8 view .LVU572
 1714 0010 002A     		cmp	r2, #0
 1715 0012 19DB     		blt	.L145
 1716              	.L143:
 1717              		.loc 1 684 5 is_stmt 1 view .LVU573
 1718              		.loc 1 684 57 is_stmt 0 view .LVU574
 1719 0014 4FF48032 		mov	r2, #65536
 1720              		.loc 1 684 84 view .LVU575
 1721 0018 03F00F03 		and	r3, r3, #15
 1722              	.LVL122:
 1723              		.loc 1 684 27 view .LVU576
 1724 001c D0F83C18 		ldr	r1, [r0, #2108]
 1725              	.LVL123:
 1726              		.loc 1 684 54 view .LVU577
 1727 0020 02FA03F3 		lsl	r3, r2, r3
 1728              		.loc 1 686 32 view .LVU578
 1729 0024 234A     		ldr	r2, .L146
 1730              		.loc 1 684 27 view .LVU579
 1731 0026 21EA0301 		bic	r1, r1, r3
 1732 002a C0F83C18 		str	r1, [r0, #2108]
 1733              		.loc 1 685 5 is_stmt 1 view .LVU580
 1734              		.loc 1 685 27 is_stmt 0 view .LVU581
 1735 002e D0F81C18 		ldr	r1, [r0, #2076]
 1736 0032 21EA0303 		bic	r3, r1, r3
 1737 0036 C0F81C38 		str	r3, [r0, #2076]
 1738              		.loc 1 686 5 is_stmt 1 view .LVU582
 1739              		.loc 1 693 1 is_stmt 0 view .LVU583
 1740 003a 0020     		movs	r0, #0
 1741              	.LVL124:
 1742              		.loc 1 686 32 view .LVU584
 1743 003c DCF8003B 		ldr	r3, [ip, #2816]
 1744 0040 1A40     		ands	r2, r2, r3
 1745 0042 CCF8002B 		str	r2, [ip, #2816]
 1746              		.loc 1 692 3 is_stmt 1 view .LVU585
 1747              		.loc 1 693 1 is_stmt 0 view .LVU586
 1748 0046 7047     		bx	lr
 1749              	.LVL125:
 1750              	.L145:
 1751              		.loc 1 680 7 is_stmt 1 view .LVU587
 1752              		.loc 1 680 34 is_stmt 0 view .LVU588
 1753 0048 DCF8002B 		ldr	r2, [ip, #2816]
 1754 004c 42F00062 		orr	r2, r2, #134217728
 1755 0050 CCF8002B 		str	r2, [ip, #2816]
 1756              		.loc 1 681 7 is_stmt 1 view .LVU589
 1757              		.loc 1 681 34 is_stmt 0 view .LVU590
 1758 0054 DCF8002B 		ldr	r2, [ip, #2816]
 1759 0058 42F08042 		orr	r2, r2, #1073741824
 1760 005c CCF8002B 		str	r2, [ip, #2816]
 1761 0060 D8E7     		b	.L143
 1762              	.L144:
 1763              		.loc 1 662 5 is_stmt 1 view .LVU591
 1764              		.loc 1 662 26 is_stmt 0 view .LVU592
 1765 0062 DCF80029 		ldr	r2, [ip, #2304]
 1766              		.loc 1 662 8 view .LVU593
 1767 0066 002A     		cmp	r2, #0
ARM GAS  C:\Users\DEVELO~1\AppData\Local\Temp\cc15HDCU.s 			page 32


 1768 0068 0BDA     		bge	.L141
 1769              		.loc 1 664 7 is_stmt 1 view .LVU594
 1770              		.loc 1 664 33 is_stmt 0 view .LVU595
 1771 006a DCF80029 		ldr	r2, [ip, #2304]
 1772 006e 42F00062 		orr	r2, r2, #134217728
 1773 0072 CCF80029 		str	r2, [ip, #2304]
 1774              		.loc 1 665 7 is_stmt 1 view .LVU596
 1775              		.loc 1 665 33 is_stmt 0 view .LVU597
 1776 0076 DCF80029 		ldr	r2, [ip, #2304]
 1777 007a 42F08042 		orr	r2, r2, #1073741824
 1778 007e CCF80029 		str	r2, [ip, #2304]
 1779              	.L141:
 1780              		.loc 1 668 5 is_stmt 1 view .LVU598
 1781              		.loc 1 668 83 is_stmt 0 view .LVU599
 1782 0082 03F00F02 		and	r2, r3, #15
 1783              		.loc 1 668 56 view .LVU600
 1784 0086 0123     		movs	r3, #1
 1785              	.LVL126:
 1786              		.loc 1 668 27 view .LVU601
 1787 0088 D0F83C18 		ldr	r1, [r0, #2108]
 1788              	.LVL127:
 1789              		.loc 1 668 56 view .LVU602
 1790 008c 9340     		lsls	r3, r3, r2
 1791              		.loc 1 670 31 view .LVU603
 1792 008e 0A4A     		ldr	r2, .L146+4
 1793              		.loc 1 668 27 view .LVU604
 1794 0090 21EA0301 		bic	r1, r1, r3
 1795 0094 C0F83C18 		str	r1, [r0, #2108]
 1796              		.loc 1 669 5 is_stmt 1 view .LVU605
 1797              		.loc 1 669 27 is_stmt 0 view .LVU606
 1798 0098 D0F81C18 		ldr	r1, [r0, #2076]
 1799 009c 21EA0303 		bic	r3, r1, r3
 1800 00a0 C0F81C38 		str	r3, [r0, #2076]
 1801              		.loc 1 670 5 is_stmt 1 view .LVU607
 1802              		.loc 1 693 1 is_stmt 0 view .LVU608
 1803 00a4 0020     		movs	r0, #0
 1804              	.LVL128:
 1805              		.loc 1 670 31 view .LVU609
 1806 00a6 DCF80039 		ldr	r3, [ip, #2304]
 1807 00aa 1A40     		ands	r2, r2, r3
 1808 00ac CCF80029 		str	r2, [ip, #2304]
 1809              		.loc 1 692 3 is_stmt 1 view .LVU610
 1810              		.loc 1 693 1 is_stmt 0 view .LVU611
 1811 00b0 7047     		bx	lr
 1812              	.L147:
 1813 00b2 00BF     		.align	2
 1814              	.L146:
 1815 00b4 0078F3EF 		.word	-269256704
 1816 00b8 007833EC 		.word	-332171264
 1817              		.cfi_endproc
 1818              	.LFE153:
 1819              		.size	USB_DeactivateEndpoint, .-USB_DeactivateEndpoint
 1820              		.section	.text.USB_DeactivateDedicatedEndpoint,"ax",%progbits
 1821              		.align	1
 1822              		.p2align 4,,15
 1823              		.global	USB_DeactivateDedicatedEndpoint
 1824              		.syntax unified
ARM GAS  C:\Users\DEVELO~1\AppData\Local\Temp\cc15HDCU.s 			page 33


 1825              		.thumb
 1826              		.thumb_func
 1827              		.type	USB_DeactivateDedicatedEndpoint, %function
 1828              	USB_DeactivateDedicatedEndpoint:
 1829              	.LVL129:
 1830              	.LFB154:
 1831              		.loc 1 702 1 is_stmt 1 view -0
 1832              		.cfi_startproc
 1833              		@ args = 0, pretend = 0, frame = 0
 1834              		@ frame_needed = 0, uses_anonymous_args = 0
 1835              		@ link register save eliminated.
 1836              		.loc 1 703 3 view .LVU613
 1837              		.loc 1 704 3 view .LVU614
 1838              		.loc 1 702 1 is_stmt 0 view .LVU615
 1839 0000 10B4     		push	{r4}
 1840              		.cfi_def_cfa_offset 4
 1841              		.cfi_offset 4, -4
 1842              		.loc 1 707 6 view .LVU616
 1843 0002 4A78     		ldrb	r2, [r1, #1]	@ zero_extendqisi2
 1844              		.loc 1 704 32 view .LVU617
 1845 0004 0B78     		ldrb	r3, [r1]	@ zero_extendqisi2
 1846              	.LVL130:
 1847              		.loc 1 707 3 is_stmt 1 view .LVU618
 1848              		.loc 1 707 6 is_stmt 0 view .LVU619
 1849 0006 012A     		cmp	r2, #1
 1850              		.loc 1 709 10 view .LVU620
 1851 0008 00EB4312 		add	r2, r0, r3, lsl #5
 1852              		.loc 1 707 6 view .LVU621
 1853 000c 24D0     		beq	.L154
 1854              		.loc 1 720 5 is_stmt 1 view .LVU622
 1855              		.loc 1 720 27 is_stmt 0 view .LVU623
 1856 000e D2F8001B 		ldr	r1, [r2, #2816]
 1857              	.LVL131:
 1858              		.loc 1 720 8 view .LVU624
 1859 0012 0029     		cmp	r1, #0
 1860 0014 13DB     		blt	.L155
 1861              	.L152:
 1862              		.loc 1 726 5 is_stmt 1 view .LVU625
 1863              		.loc 1 726 32 is_stmt 0 view .LVU626
 1864 0016 D2F8004B 		ldr	r4, [r2, #2816]
 1865              		.loc 1 727 84 view .LVU627
 1866 001a 03F00F03 		and	r3, r3, #15
 1867              	.LVL132:
 1868              		.loc 1 727 57 view .LVU628
 1869 001e 4FF48031 		mov	r1, #65536
 1870              		.loc 1 726 32 view .LVU629
 1871 0022 24F40044 		bic	r4, r4, #32768
 1872              		.loc 1 727 54 view .LVU630
 1873 0026 9940     		lsls	r1, r1, r3
 1874              		.loc 1 726 32 view .LVU631
 1875 0028 C2F8004B 		str	r4, [r2, #2816]
 1876              		.loc 1 727 5 is_stmt 1 view .LVU632
 1877              		.loc 1 727 27 is_stmt 0 view .LVU633
 1878 002c D0F81C38 		ldr	r3, [r0, #2076]
 1879              		.loc 1 731 1 view .LVU634
 1880 0030 10BC     		pop	{r4}
 1881              		.cfi_remember_state
ARM GAS  C:\Users\DEVELO~1\AppData\Local\Temp\cc15HDCU.s 			page 34


 1882              		.cfi_restore 4
 1883              		.cfi_def_cfa_offset 0
 1884              		.loc 1 727 27 view .LVU635
 1885 0032 23EA0103 		bic	r3, r3, r1
 1886 0036 C0F81C38 		str	r3, [r0, #2076]
 1887              		.loc 1 730 3 is_stmt 1 view .LVU636
 1888              		.loc 1 731 1 is_stmt 0 view .LVU637
 1889 003a 0020     		movs	r0, #0
 1890              	.LVL133:
 1891              		.loc 1 731 1 view .LVU638
 1892 003c 7047     		bx	lr
 1893              	.LVL134:
 1894              	.L155:
 1895              		.cfi_restore_state
 1896              		.loc 1 722 7 is_stmt 1 view .LVU639
 1897              		.loc 1 722 35 is_stmt 0 view .LVU640
 1898 003e D2F8001B 		ldr	r1, [r2, #2816]
 1899 0042 41F00061 		orr	r1, r1, #134217728
 1900 0046 C2F8001B 		str	r1, [r2, #2816]
 1901              		.loc 1 723 7 is_stmt 1 view .LVU641
 1902              		.loc 1 723 35 is_stmt 0 view .LVU642
 1903 004a D2F8001B 		ldr	r1, [r2, #2816]
 1904 004e 41F08041 		orr	r1, r1, #1073741824
 1905 0052 C2F8001B 		str	r1, [r2, #2816]
 1906 0056 DEE7     		b	.L152
 1907              	.LVL135:
 1908              	.L154:
 1909              		.loc 1 709 5 is_stmt 1 view .LVU643
 1910              		.loc 1 709 26 is_stmt 0 view .LVU644
 1911 0058 D2F80019 		ldr	r1, [r2, #2304]
 1912              	.LVL136:
 1913              		.loc 1 709 8 view .LVU645
 1914 005c 0029     		cmp	r1, #0
 1915 005e 0BDA     		bge	.L150
 1916              		.loc 1 711 7 is_stmt 1 view .LVU646
 1917              		.loc 1 711 34 is_stmt 0 view .LVU647
 1918 0060 D2F80019 		ldr	r1, [r2, #2304]
 1919 0064 41F00061 		orr	r1, r1, #134217728
 1920 0068 C2F80019 		str	r1, [r2, #2304]
 1921              		.loc 1 712 7 is_stmt 1 view .LVU648
 1922              		.loc 1 712 34 is_stmt 0 view .LVU649
 1923 006c D2F80019 		ldr	r1, [r2, #2304]
 1924 0070 41F08041 		orr	r1, r1, #1073741824
 1925 0074 C2F80019 		str	r1, [r2, #2304]
 1926              	.L150:
 1927              		.loc 1 715 5 is_stmt 1 view .LVU650
 1928              		.loc 1 715 31 is_stmt 0 view .LVU651
 1929 0078 D2F80049 		ldr	r4, [r2, #2304]
 1930              		.loc 1 716 83 view .LVU652
 1931 007c 03F00F03 		and	r3, r3, #15
 1932              	.LVL137:
 1933              		.loc 1 716 56 view .LVU653
 1934 0080 0121     		movs	r1, #1
 1935              		.loc 1 715 31 view .LVU654
 1936 0082 24F40044 		bic	r4, r4, #32768
 1937              		.loc 1 716 56 view .LVU655
 1938 0086 9940     		lsls	r1, r1, r3
ARM GAS  C:\Users\DEVELO~1\AppData\Local\Temp\cc15HDCU.s 			page 35


 1939              		.loc 1 715 31 view .LVU656
 1940 0088 C2F80049 		str	r4, [r2, #2304]
 1941              		.loc 1 716 5 is_stmt 1 view .LVU657
 1942              		.loc 1 716 27 is_stmt 0 view .LVU658
 1943 008c D0F81C38 		ldr	r3, [r0, #2076]
 1944              		.loc 1 731 1 view .LVU659
 1945 0090 10BC     		pop	{r4}
 1946              		.cfi_restore 4
 1947              		.cfi_def_cfa_offset 0
 1948              		.loc 1 716 27 view .LVU660
 1949 0092 23EA0103 		bic	r3, r3, r1
 1950 0096 C0F81C38 		str	r3, [r0, #2076]
 1951              		.loc 1 730 3 is_stmt 1 view .LVU661
 1952              		.loc 1 731 1 is_stmt 0 view .LVU662
 1953 009a 0020     		movs	r0, #0
 1954              	.LVL138:
 1955              		.loc 1 731 1 view .LVU663
 1956 009c 7047     		bx	lr
 1957              		.cfi_endproc
 1958              	.LFE154:
 1959              		.size	USB_DeactivateDedicatedEndpoint, .-USB_DeactivateDedicatedEndpoint
 1960 009e 00BF     		.section	.text.USB_EPStartXfer,"ax",%progbits
 1961              		.align	1
 1962              		.p2align 4,,15
 1963              		.global	USB_EPStartXfer
 1964              		.syntax unified
 1965              		.thumb
 1966              		.thumb_func
 1967              		.type	USB_EPStartXfer, %function
 1968              	USB_EPStartXfer:
 1969              	.LVL139:
 1970              	.LFB155:
 1971              		.loc 1 744 1 is_stmt 1 view -0
 1972              		.cfi_startproc
 1973              		@ args = 0, pretend = 0, frame = 0
 1974              		@ frame_needed = 0, uses_anonymous_args = 0
 1975              		.loc 1 745 3 view .LVU665
 1976              		.loc 1 746 3 view .LVU666
 1977              		.loc 1 744 1 is_stmt 0 view .LVU667
 1978 0000 F0B5     		push	{r4, r5, r6, r7, lr}
 1979              		.cfi_def_cfa_offset 20
 1980              		.cfi_offset 4, -20
 1981              		.cfi_offset 5, -16
 1982              		.cfi_offset 6, -12
 1983              		.cfi_offset 7, -8
 1984              		.cfi_offset 14, -4
 1985              		.loc 1 750 6 view .LVU668
 1986 0002 4B78     		ldrb	r3, [r1, #1]	@ zero_extendqisi2
 1987              		.loc 1 746 32 view .LVU669
 1988 0004 0C78     		ldrb	r4, [r1]	@ zero_extendqisi2
 1989              	.LVL140:
 1990              		.loc 1 747 3 is_stmt 1 view .LVU670
 1991              		.loc 1 750 3 view .LVU671
 1992              		.loc 1 750 6 is_stmt 0 view .LVU672
 1993 0006 012B     		cmp	r3, #1
 1994 0008 44D0     		beq	.L194
 1995              		.loc 1 849 5 is_stmt 1 view .LVU673
ARM GAS  C:\Users\DEVELO~1\AppData\Local\Temp\cc15HDCU.s 			page 36


 1996              		.loc 1 849 33 is_stmt 0 view .LVU674
 1997 000a 00EB4413 		add	r3, r0, r4, lsl #5
 1998 000e 864E     		ldr	r6, .L198
 1999              		.loc 1 850 33 view .LVU675
 2000 0010 864D     		ldr	r5, .L198+4
 2001              		.loc 1 849 33 view .LVU676
 2002 0012 D3F8107B 		ldr	r7, [r3, #2832]
 2003 0016 03F5306C 		add	ip, r3, #2816
 2004 001a 3E40     		ands	r6, r6, r7
 2005 001c C3F8106B 		str	r6, [r3, #2832]
 2006              		.loc 1 850 5 is_stmt 1 view .LVU677
 2007              		.loc 1 850 33 is_stmt 0 view .LVU678
 2008 0020 D3F8106B 		ldr	r6, [r3, #2832]
 2009 0024 3540     		ands	r5, r5, r6
 2010 0026 C3F8105B 		str	r5, [r3, #2832]
 2011              		.loc 1 852 5 is_stmt 1 view .LVU679
 2012              		.loc 1 852 8 is_stmt 0 view .LVU680
 2013 002a 74BB     		cbnz	r4, .L174
 2014              		.loc 1 854 7 is_stmt 1 view .LVU681
 2015              		.loc 1 854 10 is_stmt 0 view .LVU682
 2016 002c 0C69     		ldr	r4, [r1, #16]
 2017              	.LVL141:
 2018              		.loc 1 854 10 view .LVU683
 2019 002e 002C     		cmp	r4, #0
 2020 0030 40F08C80 		bne	.L175
 2021              		.loc 1 771 30 view .LVU684
 2022 0034 8C68     		ldr	r4, [r1, #8]
 2023              	.L176:
 2024              		.loc 1 860 7 is_stmt 1 view .LVU685
 2025              		.loc 1 860 21 is_stmt 0 view .LVU686
 2026 0036 0C62     		str	r4, [r1, #32]
 2027              		.loc 1 862 7 is_stmt 1 view .LVU687
 2028              	.L193:
 2029              		.loc 1 869 37 is_stmt 0 view .LVU688
 2030 0038 DCF81050 		ldr	r5, [ip, #16]
 2031              		.loc 1 869 65 view .LVU689
 2032 003c C4F31204 		ubfx	r4, r4, #0, #19
 2033              		.loc 1 882 8 view .LVU690
 2034 0040 012A     		cmp	r2, #1
 2035              		.loc 1 869 37 view .LVU691
 2036 0042 44EA0504 		orr	r4, r4, r5
 2037 0046 CCF81040 		str	r4, [ip, #16]
 2038              		.loc 1 870 9 is_stmt 1 view .LVU692
 2039              		.loc 1 870 37 is_stmt 0 view .LVU693
 2040 004a DCF81040 		ldr	r4, [ip, #16]
 2041 004e 44F40024 		orr	r4, r4, #524288
 2042 0052 CCF81040 		str	r4, [ip, #16]
 2043              		.loc 1 882 5 is_stmt 1 view .LVU694
 2044              		.loc 1 882 8 is_stmt 0 view .LVU695
 2045 0056 00F09A80 		beq	.L195
 2046              	.LVL142:
 2047              	.L179:
 2048              		.loc 1 890 5 is_stmt 1 view .LVU696
 2049              		.loc 1 890 8 is_stmt 0 view .LVU697
 2050 005a 0A79     		ldrb	r2, [r1, #4]	@ zero_extendqisi2
 2051 005c 012A     		cmp	r2, #1
 2052 005e 0CD1     		bne	.L180
ARM GAS  C:\Users\DEVELO~1\AppData\Local\Temp\cc15HDCU.s 			page 37


 2053              		.loc 1 892 7 is_stmt 1 view .LVU698
 2054              		.loc 1 892 23 is_stmt 0 view .LVU699
 2055 0060 D0F80828 		ldr	r2, [r0, #2056]
 2056              		.loc 1 892 10 view .LVU700
 2057 0064 12F4807F 		tst	r2, #256
 2058              		.loc 1 894 36 view .LVU701
 2059 0068 D3F8002B 		ldr	r2, [r3, #2816]
 2060              		.loc 1 894 9 is_stmt 1 view .LVU702
 2061              		.loc 1 894 36 is_stmt 0 view .LVU703
 2062 006c 0CBF     		ite	eq
 2063 006e 42F00052 		orreq	r2, r2, #536870912
 2064              		.loc 1 898 9 is_stmt 1 view .LVU704
 2065              		.loc 1 898 36 is_stmt 0 view .LVU705
 2066 0072 42F08052 		orrne	r2, r2, #268435456
 2067 0076 C3F8002B 		str	r2, [r3, #2816]
 2068              	.L180:
 2069              		.loc 1 902 5 is_stmt 1 view .LVU706
 2070              		.loc 1 902 32 is_stmt 0 view .LVU707
 2071 007a D3F8002B 		ldr	r2, [r3, #2816]
 2072              		.loc 1 906 1 view .LVU708
 2073 007e 0020     		movs	r0, #0
 2074              	.LVL143:
 2075              		.loc 1 902 32 view .LVU709
 2076 0080 42F00442 		orr	r2, r2, #-2080374784
 2077 0084 C3F8002B 		str	r2, [r3, #2816]
 2078              		.loc 1 905 3 is_stmt 1 view .LVU710
 2079              		.loc 1 906 1 is_stmt 0 view .LVU711
 2080 0088 F0BD     		pop	{r4, r5, r6, r7, pc}
 2081              	.LVL144:
 2082              	.L174:
 2083              		.loc 1 867 7 is_stmt 1 view .LVU712
 2084              		.loc 1 867 13 is_stmt 0 view .LVU713
 2085 008a 0C69     		ldr	r4, [r1, #16]
 2086              	.LVL145:
 2087              		.loc 1 867 10 view .LVU714
 2088 008c 002C     		cmp	r4, #0
 2089 008e 60D1     		bne	.L178
 2090              		.loc 1 869 9 is_stmt 1 view .LVU715
 2091              		.loc 1 869 65 is_stmt 0 view .LVU716
 2092 0090 8C68     		ldr	r4, [r1, #8]
 2093 0092 D1E7     		b	.L193
 2094              	.LVL146:
 2095              	.L194:
 2096              		.loc 1 753 5 is_stmt 1 view .LVU717
 2097              		.loc 1 755 34 is_stmt 0 view .LVU718
 2098 0094 00EB4413 		add	r3, r0, r4, lsl #5
 2099              		.loc 1 753 11 view .LVU719
 2100 0098 0D69     		ldr	r5, [r1, #16]
 2101              		.loc 1 755 34 view .LVU720
 2102 009a 03F51063 		add	r3, r3, #2304
 2103              		.loc 1 753 8 view .LVU721
 2104 009e 25BB     		cbnz	r5, .L158
 2105              		.loc 1 755 7 is_stmt 1 view .LVU722
 2106              		.loc 1 755 34 is_stmt 0 view .LVU723
 2107 00a0 1E69     		ldr	r6, [r3, #16]
 2108              		.loc 1 793 8 view .LVU724
 2109 00a2 012A     		cmp	r2, #1
ARM GAS  C:\Users\DEVELO~1\AppData\Local\Temp\cc15HDCU.s 			page 38


 2110              		.loc 1 755 34 view .LVU725
 2111 00a4 614D     		ldr	r5, .L198+4
 2112 00a6 05EA0605 		and	r5, r5, r6
 2113 00aa 1D61     		str	r5, [r3, #16]
 2114              		.loc 1 756 7 is_stmt 1 view .LVU726
 2115              		.loc 1 756 34 is_stmt 0 view .LVU727
 2116 00ac 1D69     		ldr	r5, [r3, #16]
 2117 00ae 45F40025 		orr	r5, r5, #524288
 2118 00b2 1D61     		str	r5, [r3, #16]
 2119              		.loc 1 757 7 is_stmt 1 view .LVU728
 2120              		.loc 1 757 34 is_stmt 0 view .LVU729
 2121 00b4 5C4D     		ldr	r5, .L198
 2122 00b6 1E69     		ldr	r6, [r3, #16]
 2123 00b8 05EA0605 		and	r5, r5, r6
 2124 00bc 1D61     		str	r5, [r3, #16]
 2125              		.loc 1 783 15 view .LVU730
 2126 00be 0F79     		ldrb	r7, [r1, #4]	@ zero_extendqisi2
 2127              		.loc 1 793 5 is_stmt 1 view .LVU731
 2128              		.loc 1 793 8 is_stmt 0 view .LVU732
 2129 00c0 2ED0     		beq	.L196
 2130              	.L163:
 2131              		.loc 1 818 7 is_stmt 1 view .LVU733
 2132              		.loc 1 818 33 is_stmt 0 view .LVU734
 2133 00c2 1D68     		ldr	r5, [r3]
 2134              		.loc 1 820 10 view .LVU735
 2135 00c4 012F     		cmp	r7, #1
 2136              		.loc 1 818 33 view .LVU736
 2137 00c6 45F00445 		orr	r5, r5, #-2080374784
 2138 00ca 1D60     		str	r5, [r3]
 2139              		.loc 1 820 7 is_stmt 1 view .LVU737
 2140              		.loc 1 820 10 is_stmt 0 view .LVU738
 2141 00cc 00F08880 		beq	.L168
 2142              		.loc 1 823 9 is_stmt 1 view .LVU739
 2143              		.loc 1 823 12 is_stmt 0 view .LVU740
 2144 00d0 0B69     		ldr	r3, [r1, #16]
 2145 00d2 43B1     		cbz	r3, .L167
 2146              		.loc 1 825 11 is_stmt 1 view .LVU741
 2147              		.loc 1 825 54 is_stmt 0 view .LVU742
 2148 00d4 04F00F04 		and	r4, r4, #15
 2149              	.LVL147:
 2150              		.loc 1 825 42 view .LVU743
 2151 00d8 0123     		movs	r3, #1
 2152              		.loc 1 825 35 view .LVU744
 2153 00da D0F83428 		ldr	r2, [r0, #2100]
 2154              	.LVL148:
 2155              		.loc 1 825 42 view .LVU745
 2156 00de A340     		lsls	r3, r3, r4
 2157              		.loc 1 825 35 view .LVU746
 2158 00e0 1343     		orrs	r3, r3, r2
 2159 00e2 C0F83438 		str	r3, [r0, #2100]
 2160              	.LVL149:
 2161              	.L167:
 2162              		.loc 1 905 3 is_stmt 1 view .LVU747
 2163              		.loc 1 906 1 is_stmt 0 view .LVU748
 2164 00e6 0020     		movs	r0, #0
 2165              	.LVL150:
 2166              		.loc 1 906 1 view .LVU749
ARM GAS  C:\Users\DEVELO~1\AppData\Local\Temp\cc15HDCU.s 			page 39


 2167 00e8 F0BD     		pop	{r4, r5, r6, r7, pc}
 2168              	.LVL151:
 2169              	.L158:
 2170              		.loc 1 766 7 is_stmt 1 view .LVU750
 2171              		.loc 1 766 34 is_stmt 0 view .LVU751
 2172 00ea 1F69     		ldr	r7, [r3, #16]
 2173 00ec 4E4E     		ldr	r6, .L198
 2174 00ee 3E40     		ands	r6, r6, r7
 2175 00f0 1E61     		str	r6, [r3, #16]
 2176              		.loc 1 767 7 is_stmt 1 view .LVU752
 2177              		.loc 1 767 34 is_stmt 0 view .LVU753
 2178 00f2 4E4E     		ldr	r6, .L198+4
 2179 00f4 1F69     		ldr	r7, [r3, #16]
 2180 00f6 3E40     		ands	r6, r6, r7
 2181 00f8 1E61     		str	r6, [r3, #16]
 2182              		.loc 1 769 7 is_stmt 1 view .LVU754
 2183              		.loc 1 769 10 is_stmt 0 view .LVU755
 2184 00fa 002C     		cmp	r4, #0
 2185 00fc 4ED1     		bne	.L160
 2186              		.loc 1 771 9 is_stmt 1 view .LVU756
 2187              		.loc 1 771 30 is_stmt 0 view .LVU757
 2188 00fe 8E68     		ldr	r6, [r1, #8]
 2189              		.loc 1 771 12 view .LVU758
 2190 0100 B542     		cmp	r5, r6
 2191 0102 00F28D80 		bhi	.L197
 2192              	.L161:
 2193              		.loc 1 776 9 is_stmt 1 view .LVU759
 2194              		.loc 1 776 36 is_stmt 0 view .LVU760
 2195 0106 1E69     		ldr	r6, [r3, #16]
 2196 0108 46F40026 		orr	r6, r6, #524288
 2197 010c 1E61     		str	r6, [r3, #16]
 2198              		.loc 1 783 15 view .LVU761
 2199 010e 0F79     		ldrb	r7, [r1, #4]	@ zero_extendqisi2
 2200              	.L162:
 2201              		.loc 1 790 7 is_stmt 1 view .LVU762
 2202              		.loc 1 790 34 is_stmt 0 view .LVU763
 2203 0110 1E69     		ldr	r6, [r3, #16]
 2204              		.loc 1 790 62 view .LVU764
 2205 0112 C5F31205 		ubfx	r5, r5, #0, #19
 2206              		.loc 1 793 8 view .LVU765
 2207 0116 012A     		cmp	r2, #1
 2208              		.loc 1 790 34 view .LVU766
 2209 0118 45EA0605 		orr	r5, r5, r6
 2210 011c 1D61     		str	r5, [r3, #16]
 2211              		.loc 1 793 5 is_stmt 1 view .LVU767
 2212              		.loc 1 793 8 is_stmt 0 view .LVU768
 2213 011e D0D1     		bne	.L163
 2214              	.L196:
 2215              		.loc 1 795 7 is_stmt 1 view .LVU769
 2216              		.loc 1 795 23 is_stmt 0 view .LVU770
 2217 0120 CA69     		ldr	r2, [r1, #28]
 2218              	.LVL152:
 2219              		.loc 1 795 10 view .LVU771
 2220 0122 02B1     		cbz	r2, .L164
 2221              		.loc 1 797 9 is_stmt 1 view .LVU772
 2222              		.loc 1 797 35 is_stmt 0 view .LVU773
 2223 0124 5A61     		str	r2, [r3, #20]
ARM GAS  C:\Users\DEVELO~1\AppData\Local\Temp\cc15HDCU.s 			page 40


 2224              	.L164:
 2225              		.loc 1 800 7 is_stmt 1 view .LVU774
 2226              		.loc 1 800 10 is_stmt 0 view .LVU775
 2227 0126 012F     		cmp	r7, #1
 2228 0128 0AD1     		bne	.L165
 2229              		.loc 1 802 9 is_stmt 1 view .LVU776
 2230              		.loc 1 802 25 is_stmt 0 view .LVU777
 2231 012a D0F80828 		ldr	r2, [r0, #2056]
 2232              		.loc 1 802 12 view .LVU778
 2233 012e 12F4807F 		tst	r2, #256
 2234              		.loc 1 804 37 view .LVU779
 2235 0132 1A68     		ldr	r2, [r3]
 2236              		.loc 1 804 11 is_stmt 1 view .LVU780
 2237              		.loc 1 804 37 is_stmt 0 view .LVU781
 2238 0134 0CBF     		ite	eq
 2239 0136 42F00052 		orreq	r2, r2, #536870912
 2240              		.loc 1 808 11 is_stmt 1 view .LVU782
 2241              		.loc 1 808 37 is_stmt 0 view .LVU783
 2242 013a 42F08052 		orrne	r2, r2, #268435456
 2243 013e 1A60     		str	r2, [r3]
 2244              	.L165:
 2245              		.loc 1 813 7 is_stmt 1 view .LVU784
 2246              		.loc 1 813 33 is_stmt 0 view .LVU785
 2247 0140 1A68     		ldr	r2, [r3]
 2248              		.loc 1 906 1 view .LVU786
 2249 0142 0020     		movs	r0, #0
 2250              	.LVL153:
 2251              		.loc 1 813 33 view .LVU787
 2252 0144 42F00442 		orr	r2, r2, #-2080374784
 2253 0148 1A60     		str	r2, [r3]
 2254              		.loc 1 905 3 is_stmt 1 view .LVU788
 2255              		.loc 1 906 1 is_stmt 0 view .LVU789
 2256 014a F0BD     		pop	{r4, r5, r6, r7, pc}
 2257              	.LVL154:
 2258              	.L175:
 2259              		.loc 1 856 9 is_stmt 1 view .LVU790
 2260              		.loc 1 856 26 is_stmt 0 view .LVU791
 2261 014c 8C68     		ldr	r4, [r1, #8]
 2262              		.loc 1 856 22 view .LVU792
 2263 014e 0C61     		str	r4, [r1, #16]
 2264 0150 71E7     		b	.L176
 2265              	.L178:
 2266              		.loc 1 874 9 is_stmt 1 view .LVU793
 2267              		.loc 1 874 47 is_stmt 0 view .LVU794
 2268 0152 8D68     		ldr	r5, [r1, #8]
 2269              	.LVL155:
 2270              		.loc 1 875 9 is_stmt 1 view .LVU795
 2271              		.loc 1 882 8 is_stmt 0 view .LVU796
 2272 0154 012A     		cmp	r2, #1
 2273              		.loc 1 877 64 view .LVU797
 2274 0156 364E     		ldr	r6, .L198+8
 2275              		.loc 1 874 43 view .LVU798
 2276 0158 2C44     		add	r4, r4, r5
 2277              	.LVL156:
 2278              		.loc 1 874 59 view .LVU799
 2279 015a 04F1FF34 		add	r4, r4, #-1
 2280              		.loc 1 874 65 view .LVU800
ARM GAS  C:\Users\DEVELO~1\AppData\Local\Temp\cc15HDCU.s 			page 41


 2281 015e B4FBF5F4 		udiv	r4, r4, r5
 2282 0162 A4B2     		uxth	r4, r4
 2283              		.loc 1 875 39 view .LVU801
 2284 0164 04FB05F5 		mul	r5, r4, r5
 2285              	.LVL157:
 2286              		.loc 1 877 64 view .LVU802
 2287 0168 06EAC444 		and	r4, r6, r4, lsl #19
 2288              		.loc 1 877 37 view .LVU803
 2289 016c DCF81060 		ldr	r6, [ip, #16]
 2290              		.loc 1 875 23 view .LVU804
 2291 0170 0D62     		str	r5, [r1, #32]
 2292              		.loc 1 877 9 is_stmt 1 view .LVU805
 2293              		.loc 1 878 64 is_stmt 0 view .LVU806
 2294 0172 C5F31205 		ubfx	r5, r5, #0, #19
 2295              		.loc 1 877 37 view .LVU807
 2296 0176 44EA0604 		orr	r4, r4, r6
 2297 017a CCF81040 		str	r4, [ip, #16]
 2298              		.loc 1 878 9 is_stmt 1 view .LVU808
 2299              		.loc 1 878 37 is_stmt 0 view .LVU809
 2300 017e DCF81040 		ldr	r4, [ip, #16]
 2301 0182 45EA0405 		orr	r5, r5, r4
 2302 0186 CCF81050 		str	r5, [ip, #16]
 2303              		.loc 1 882 5 is_stmt 1 view .LVU810
 2304              		.loc 1 882 8 is_stmt 0 view .LVU811
 2305 018a 7FF466AF 		bne	.L179
 2306              	.LVL158:
 2307              	.L195:
 2308              		.loc 1 884 7 is_stmt 1 view .LVU812
 2309              		.loc 1 884 23 is_stmt 0 view .LVU813
 2310 018e CA68     		ldr	r2, [r1, #12]
 2311              	.LVL159:
 2312              		.loc 1 884 10 view .LVU814
 2313 0190 002A     		cmp	r2, #0
 2314 0192 3FF462AF 		beq	.L179
 2315              		.loc 1 886 9 is_stmt 1 view .LVU815
 2316              		.loc 1 886 36 is_stmt 0 view .LVU816
 2317 0196 CCF81420 		str	r2, [ip, #20]
 2318 019a 5EE7     		b	.L179
 2319              	.LVL160:
 2320              	.L160:
 2321              		.loc 1 780 9 is_stmt 1 view .LVU817
 2322              		.loc 1 780 47 is_stmt 0 view .LVU818
 2323 019c D1F808C0 		ldr	ip, [r1, #8]
 2324              	.LVL161:
 2325              		.loc 1 781 9 is_stmt 1 view .LVU819
 2326              		.loc 1 781 64 is_stmt 0 view .LVU820
 2327 01a0 234F     		ldr	r7, .L198+8
 2328              		.loc 1 780 43 view .LVU821
 2329 01a2 05EB0C06 		add	r6, r5, ip
 2330              		.loc 1 781 36 view .LVU822
 2331 01a6 D3F810E0 		ldr	lr, [r3, #16]
 2332              		.loc 1 780 59 view .LVU823
 2333 01aa 013E     		subs	r6, r6, #1
 2334              		.loc 1 780 65 view .LVU824
 2335 01ac B6FBFCF6 		udiv	r6, r6, ip
 2336              		.loc 1 781 64 view .LVU825
 2337 01b0 07EAC647 		and	r7, r7, r6, lsl #19
ARM GAS  C:\Users\DEVELO~1\AppData\Local\Temp\cc15HDCU.s 			page 42


 2338 01b4 B6B2     		uxth	r6, r6
 2339              		.loc 1 781 36 view .LVU826
 2340 01b6 47EA0E07 		orr	r7, r7, lr
 2341 01ba 1F61     		str	r7, [r3, #16]
 2342              		.loc 1 783 9 is_stmt 1 view .LVU827
 2343              		.loc 1 783 15 is_stmt 0 view .LVU828
 2344 01bc 0F79     		ldrb	r7, [r1, #4]	@ zero_extendqisi2
 2345              		.loc 1 783 12 view .LVU829
 2346 01be 012F     		cmp	r7, #1
 2347 01c0 A6D1     		bne	.L162
 2348              		.loc 1 785 11 is_stmt 1 view .LVU830
 2349              		.loc 1 785 38 is_stmt 0 view .LVU831
 2350 01c2 D3F810C0 		ldr	ip, [r3, #16]
 2351              	.LVL162:
 2352              		.loc 1 786 86 view .LVU832
 2353 01c6 7607     		lsls	r6, r6, #29
 2354              		.loc 1 785 38 view .LVU833
 2355 01c8 2CF0C04C 		bic	ip, ip, #1610612736
 2356              		.loc 1 786 66 view .LVU834
 2357 01cc 06F0C046 		and	r6, r6, #1610612736
 2358              		.loc 1 785 38 view .LVU835
 2359 01d0 C3F810C0 		str	ip, [r3, #16]
 2360              		.loc 1 786 11 is_stmt 1 view .LVU836
 2361              		.loc 1 786 38 is_stmt 0 view .LVU837
 2362 01d4 D3F810C0 		ldr	ip, [r3, #16]
 2363 01d8 46EA0C06 		orr	r6, r6, ip
 2364 01dc 1E61     		str	r6, [r3, #16]
 2365 01de 97E7     		b	.L162
 2366              	.LVL163:
 2367              	.L168:
 2368              		.loc 1 830 9 is_stmt 1 view .LVU838
 2369              		.loc 1 830 25 is_stmt 0 view .LVU839
 2370 01e0 D0F80858 		ldr	r5, [r0, #2056]
 2371              		.loc 1 830 12 view .LVU840
 2372 01e4 15F4807F 		tst	r5, #256
 2373              		.loc 1 832 37 view .LVU841
 2374 01e8 1D68     		ldr	r5, [r3]
 2375              		.loc 1 832 11 is_stmt 1 view .LVU842
 2376              		.loc 1 832 37 is_stmt 0 view .LVU843
 2377 01ea 0CBF     		ite	eq
 2378 01ec 45F00055 		orreq	r5, r5, #536870912
 2379              		.loc 1 836 11 is_stmt 1 view .LVU844
 2380              		.loc 1 839 9 view .LVU845
 2381              	.LVL164:
 2382              	.LBB34:
 2383              	.LBI34:
 2384              		.loc 1 979 19 view .LVU846
 2385              	.LBB35:
 2386              		.loc 1 982 3 view .LVU847
 2387              		.loc 1 983 3 view .LVU848
 2388              		.loc 1 984 3 view .LVU849
 2389              		.loc 1 985 3 view .LVU850
 2390              		.loc 1 987 3 view .LVU851
 2391              	.LBE35:
 2392              	.LBE34:
 2393              		.loc 1 836 37 is_stmt 0 view .LVU852
 2394 01f0 45F08055 		orrne	r5, r5, #268435456
ARM GAS  C:\Users\DEVELO~1\AppData\Local\Temp\cc15HDCU.s 			page 43


 2395 01f4 1D60     		str	r5, [r3]
 2396              	.LVL165:
 2397              	.LBB38:
 2398              	.LBB36:
 2399              		.loc 1 987 6 view .LVU853
 2400 01f6 002A     		cmp	r2, #0
 2401 01f8 7FF475AF 		bne	.L167
 2402              		.loc 1 989 5 is_stmt 1 view .LVU854
 2403              		.loc 1 989 31 is_stmt 0 view .LVU855
 2404 01fc 0B8A     		ldrh	r3, [r1, #16]
 2405 01fe 0333     		adds	r3, r3, #3
 2406              	.LVL166:
 2407              		.loc 1 990 5 is_stmt 1 view .LVU856
 2408              		.loc 1 990 20 view .LVU857
 2409 0200 9A08     		lsrs	r2, r3, #2
 2410              	.LVL167:
 2411              		.loc 1 990 20 is_stmt 0 view .LVU858
 2412 0202 3FF470AF 		beq	.L167
 2413              	.LBE36:
 2414              	.LBE38:
 2415              		.loc 1 839 15 view .LVU859
 2416 0206 CB68     		ldr	r3, [r1, #12]
 2417              	.LBB39:
 2418              	.LBB37:
 2419              		.loc 1 992 7 view .LVU860
 2420 0208 00EB0434 		add	r4, r0, r4, lsl #12
 2421              	.LVL168:
 2422              		.loc 1 992 7 view .LVU861
 2423 020c 03EB8201 		add	r1, r3, r2, lsl #2
 2424              	.LVL169:
 2425              		.loc 1 992 7 view .LVU862
 2426 0210 04F58054 		add	r4, r4, #4096
 2427              	.LVL170:
 2428              	.L173:
 2429              		.loc 1 992 7 is_stmt 1 view .LVU863
 2430              		.loc 1 992 41 is_stmt 0 view .LVU864
 2431 0214 53F8042B 		ldr	r2, [r3], #4	@ unaligned
 2432              	.LVL171:
 2433              		.loc 1 990 20 view .LVU865
 2434 0218 8B42     		cmp	r3, r1
 2435              		.loc 1 992 39 view .LVU866
 2436 021a 2260     		str	r2, [r4]
 2437              		.loc 1 993 7 is_stmt 1 view .LVU867
 2438              	.LVL172:
 2439              		.loc 1 994 7 view .LVU868
 2440              		.loc 1 995 7 view .LVU869
 2441              		.loc 1 996 7 view .LVU870
 2442              		.loc 1 990 33 view .LVU871
 2443              		.loc 1 990 20 view .LVU872
 2444 021c FAD1     		bne	.L173
 2445 021e 62E7     		b	.L167
 2446              	.LVL173:
 2447              	.L197:
 2448              		.loc 1 990 20 is_stmt 0 view .LVU873
 2449              	.LBE37:
 2450              	.LBE39:
 2451              		.loc 1 773 11 is_stmt 1 view .LVU874
ARM GAS  C:\Users\DEVELO~1\AppData\Local\Temp\cc15HDCU.s 			page 44


 2452              		.loc 1 773 24 is_stmt 0 view .LVU875
 2453 0220 3546     		mov	r5, r6
 2454 0222 0E61     		str	r6, [r1, #16]
 2455 0224 6FE7     		b	.L161
 2456              	.L199:
 2457 0226 00BF     		.align	2
 2458              	.L198:
 2459 0228 0000F8FF 		.word	-524288
 2460 022c FFFF07E0 		.word	-536346625
 2461 0230 0000F81F 		.word	536346624
 2462              		.cfi_endproc
 2463              	.LFE155:
 2464              		.size	USB_EPStartXfer, .-USB_EPStartXfer
 2465              		.section	.text.USB_EPStopXfer,"ax",%progbits
 2466              		.align	1
 2467              		.p2align 4,,15
 2468              		.global	USB_EPStopXfer
 2469              		.syntax unified
 2470              		.thumb
 2471              		.thumb_func
 2472              		.type	USB_EPStopXfer, %function
 2473              	USB_EPStopXfer:
 2474              	.LVL174:
 2475              	.LFB156:
 2476              		.loc 1 916 1 is_stmt 1 view -0
 2477              		.cfi_startproc
 2478              		@ args = 0, pretend = 0, frame = 8
 2479              		@ frame_needed = 0, uses_anonymous_args = 0
 2480              		@ link register save eliminated.
 2481              		.loc 1 917 3 view .LVU877
 2482              		.loc 1 917 17 is_stmt 0 view .LVU878
 2483 0000 0023     		movs	r3, #0
 2484              		.loc 1 916 1 view .LVU879
 2485 0002 82B0     		sub	sp, sp, #8
 2486              		.cfi_def_cfa_offset 8
 2487              		.loc 1 917 17 view .LVU880
 2488 0004 0193     		str	r3, [sp, #4]
 2489              		.loc 1 918 3 is_stmt 1 view .LVU881
 2490              	.LVL175:
 2491              		.loc 1 919 3 view .LVU882
 2492              		.loc 1 922 3 view .LVU883
 2493              		.loc 1 922 6 is_stmt 0 view .LVU884
 2494 0006 4B78     		ldrb	r3, [r1, #1]	@ zero_extendqisi2
 2495 0008 012B     		cmp	r3, #1
 2496              		.loc 1 925 11 view .LVU885
 2497 000a 0B78     		ldrb	r3, [r1]	@ zero_extendqisi2
 2498              		.loc 1 922 6 view .LVU886
 2499 000c 20D0     		beq	.L211
 2500              		.loc 1 944 5 is_stmt 1 view .LVU887
 2501              		.loc 1 944 11 is_stmt 0 view .LVU888
 2502 000e 00F53060 		add	r0, r0, #2816
 2503              	.LVL176:
 2504              		.loc 1 944 11 view .LVU889
 2505 0012 00EB4310 		add	r0, r0, r3, lsl #5
 2506              	.LVL177:
 2507              		.loc 1 944 30 view .LVU890
 2508 0016 0368     		ldr	r3, [r0]
ARM GAS  C:\Users\DEVELO~1\AppData\Local\Temp\cc15HDCU.s 			page 45


 2509              		.loc 1 944 8 view .LVU891
 2510 0018 002B     		cmp	r3, #0
 2511 001a 02DB     		blt	.L212
 2512              	.LVL178:
 2513              	.L202:
 2514              		.loc 1 918 21 view .LVU892
 2515 001c 0020     		movs	r0, #0
 2516              	.LVL179:
 2517              		.loc 1 962 3 is_stmt 1 view .LVU893
 2518              		.loc 1 963 1 is_stmt 0 view .LVU894
 2519 001e 02B0     		add	sp, sp, #8
 2520              		.cfi_remember_state
 2521              		.cfi_def_cfa_offset 0
 2522              		@ sp needed
 2523 0020 7047     		bx	lr
 2524              	.LVL180:
 2525              	.L212:
 2526              		.cfi_restore_state
 2527              		.loc 1 946 7 is_stmt 1 view .LVU895
 2528              		.loc 1 946 36 is_stmt 0 view .LVU896
 2529 0022 0368     		ldr	r3, [r0]
 2530              		.loc 1 953 12 view .LVU897
 2531 0024 42F21072 		movw	r2, #10000
 2532              		.loc 1 946 36 view .LVU898
 2533 0028 43F00063 		orr	r3, r3, #134217728
 2534 002c 0360     		str	r3, [r0]
 2535              		.loc 1 947 7 is_stmt 1 view .LVU899
 2536              		.loc 1 947 36 is_stmt 0 view .LVU900
 2537 002e 0368     		ldr	r3, [r0]
 2538 0030 43F08043 		orr	r3, r3, #1073741824
 2539 0034 0360     		str	r3, [r0]
 2540 0036 02E0     		b	.L207
 2541              	.L213:
 2542              		.loc 1 958 37 view .LVU901
 2543 0038 0368     		ldr	r3, [r0]
 2544              		.loc 1 958 73 view .LVU902
 2545 003a 002B     		cmp	r3, #0
 2546 003c EEDA     		bge	.L202
 2547              	.L207:
 2548              		.loc 1 949 7 is_stmt 1 view .LVU903
 2549              		.loc 1 951 9 view .LVU904
 2550              		.loc 1 958 73 view .LVU905
 2551              		.loc 1 951 14 is_stmt 0 view .LVU906
 2552 003e 019B     		ldr	r3, [sp, #4]
 2553 0040 0133     		adds	r3, r3, #1
 2554 0042 0193     		str	r3, [sp, #4]
 2555              		.loc 1 953 9 is_stmt 1 view .LVU907
 2556              		.loc 1 953 19 is_stmt 0 view .LVU908
 2557 0044 019B     		ldr	r3, [sp, #4]
 2558              		.loc 1 953 12 view .LVU909
 2559 0046 9342     		cmp	r3, r2
 2560 0048 F6D9     		bls	.L213
 2561              	.LVL181:
 2562              	.L206:
 2563              		.loc 1 936 15 view .LVU910
 2564 004a 0120     		movs	r0, #1
 2565              	.LVL182:
ARM GAS  C:\Users\DEVELO~1\AppData\Local\Temp\cc15HDCU.s 			page 46


 2566              		.loc 1 962 3 is_stmt 1 view .LVU911
 2567              		.loc 1 963 1 is_stmt 0 view .LVU912
 2568 004c 02B0     		add	sp, sp, #8
 2569              		.cfi_remember_state
 2570              		.cfi_def_cfa_offset 0
 2571              		@ sp needed
 2572 004e 7047     		bx	lr
 2573              	.LVL183:
 2574              	.L211:
 2575              		.cfi_restore_state
 2576              		.loc 1 925 5 is_stmt 1 view .LVU913
 2577              		.loc 1 925 11 is_stmt 0 view .LVU914
 2578 0050 00F51060 		add	r0, r0, #2304
 2579              	.LVL184:
 2580              		.loc 1 925 11 view .LVU915
 2581 0054 00EB4313 		add	r3, r0, r3, lsl #5
 2582              		.loc 1 925 29 view .LVU916
 2583 0058 1A68     		ldr	r2, [r3]
 2584              		.loc 1 925 8 view .LVU917
 2585 005a 002A     		cmp	r2, #0
 2586 005c DEDA     		bge	.L202
 2587              		.loc 1 927 7 is_stmt 1 view .LVU918
 2588              		.loc 1 927 35 is_stmt 0 view .LVU919
 2589 005e 1A68     		ldr	r2, [r3]
 2590              		.loc 1 934 12 view .LVU920
 2591 0060 42F21071 		movw	r1, #10000
 2592              	.LVL185:
 2593              		.loc 1 927 35 view .LVU921
 2594 0064 42F00062 		orr	r2, r2, #134217728
 2595 0068 1A60     		str	r2, [r3]
 2596              		.loc 1 928 7 is_stmt 1 view .LVU922
 2597              		.loc 1 928 35 is_stmt 0 view .LVU923
 2598 006a 1A68     		ldr	r2, [r3]
 2599 006c 42F08042 		orr	r2, r2, #1073741824
 2600 0070 1A60     		str	r2, [r3]
 2601 0072 02E0     		b	.L205
 2602              	.L203:
 2603              		.loc 1 939 36 view .LVU924
 2604 0074 1A68     		ldr	r2, [r3]
 2605              		.loc 1 939 72 view .LVU925
 2606 0076 002A     		cmp	r2, #0
 2607 0078 D0DA     		bge	.L202
 2608              	.L205:
 2609              		.loc 1 930 7 is_stmt 1 view .LVU926
 2610              		.loc 1 932 9 view .LVU927
 2611              		.loc 1 939 72 view .LVU928
 2612              		.loc 1 932 14 is_stmt 0 view .LVU929
 2613 007a 019A     		ldr	r2, [sp, #4]
 2614 007c 0132     		adds	r2, r2, #1
 2615 007e 0192     		str	r2, [sp, #4]
 2616              		.loc 1 934 9 is_stmt 1 view .LVU930
 2617              		.loc 1 934 19 is_stmt 0 view .LVU931
 2618 0080 019A     		ldr	r2, [sp, #4]
 2619              		.loc 1 934 12 view .LVU932
 2620 0082 8A42     		cmp	r2, r1
 2621 0084 F6D9     		bls	.L203
 2622 0086 E0E7     		b	.L206
ARM GAS  C:\Users\DEVELO~1\AppData\Local\Temp\cc15HDCU.s 			page 47


 2623              		.cfi_endproc
 2624              	.LFE156:
 2625              		.size	USB_EPStopXfer, .-USB_EPStopXfer
 2626              		.section	.text.USB_WritePacket,"ax",%progbits
 2627              		.align	1
 2628              		.p2align 4,,15
 2629              		.global	USB_WritePacket
 2630              		.syntax unified
 2631              		.thumb
 2632              		.thumb_func
 2633              		.type	USB_WritePacket, %function
 2634              	USB_WritePacket:
 2635              	.LVL186:
 2636              	.LFB157:
 2637              		.loc 1 981 1 is_stmt 1 view -0
 2638              		.cfi_startproc
 2639              		@ args = 4, pretend = 0, frame = 0
 2640              		@ frame_needed = 0, uses_anonymous_args = 0
 2641              		@ link register save eliminated.
 2642              		.loc 1 982 3 view .LVU934
 2643              		.loc 1 981 1 is_stmt 0 view .LVU935
 2644 0000 10B4     		push	{r4}
 2645              		.cfi_def_cfa_offset 4
 2646              		.cfi_offset 4, -4
 2647              		.loc 1 981 1 view .LVU936
 2648 0002 9DF80440 		ldrb	r4, [sp, #4]	@ zero_extendqisi2
 2649              	.LVL187:
 2650              		.loc 1 983 3 is_stmt 1 view .LVU937
 2651              		.loc 1 984 3 view .LVU938
 2652              		.loc 1 985 3 view .LVU939
 2653              		.loc 1 987 3 view .LVU940
 2654              		.loc 1 987 6 is_stmt 0 view .LVU941
 2655 0006 64B9     		cbnz	r4, .L215
 2656              		.loc 1 989 5 is_stmt 1 view .LVU942
 2657              		.loc 1 989 31 is_stmt 0 view .LVU943
 2658 0008 0333     		adds	r3, r3, #3
 2659              	.LVL188:
 2660              		.loc 1 990 5 is_stmt 1 view .LVU944
 2661              		.loc 1 990 20 view .LVU945
 2662 000a 9B08     		lsrs	r3, r3, #2
 2663              	.LVL189:
 2664              		.loc 1 990 20 is_stmt 0 view .LVU946
 2665 000c 09D0     		beq	.L215
 2666              		.loc 1 992 7 view .LVU947
 2667 000e 0132     		adds	r2, r2, #1
 2668              	.LVL190:
 2669              		.loc 1 992 7 view .LVU948
 2670 0010 01EB8303 		add	r3, r1, r3, lsl #2
 2671              	.LVL191:
 2672              		.loc 1 992 7 view .LVU949
 2673 0014 00EB0230 		add	r0, r0, r2, lsl #12
 2674              	.LVL192:
 2675              	.L216:
 2676              		.loc 1 992 7 is_stmt 1 discriminator 3 view .LVU950
 2677              		.loc 1 992 41 is_stmt 0 discriminator 3 view .LVU951
 2678 0018 51F8042B 		ldr	r2, [r1], #4	@ unaligned
 2679              	.LVL193:
ARM GAS  C:\Users\DEVELO~1\AppData\Local\Temp\cc15HDCU.s 			page 48


 2680              		.loc 1 990 20 discriminator 3 view .LVU952
 2681 001c 8B42     		cmp	r3, r1
 2682              		.loc 1 992 39 discriminator 3 view .LVU953
 2683 001e 0260     		str	r2, [r0]
 2684              		.loc 1 993 7 is_stmt 1 discriminator 3 view .LVU954
 2685              	.LVL194:
 2686              		.loc 1 994 7 discriminator 3 view .LVU955
 2687              		.loc 1 995 7 discriminator 3 view .LVU956
 2688              		.loc 1 996 7 discriminator 3 view .LVU957
 2689              		.loc 1 990 33 discriminator 3 view .LVU958
 2690              		.loc 1 990 20 discriminator 3 view .LVU959
 2691 0020 FAD1     		bne	.L216
 2692              	.L215:
 2693              		.loc 1 1000 3 view .LVU960
 2694              		.loc 1 1001 1 is_stmt 0 view .LVU961
 2695 0022 0020     		movs	r0, #0
 2696 0024 10BC     		pop	{r4}
 2697              		.cfi_restore 4
 2698              		.cfi_def_cfa_offset 0
 2699              	.LVL195:
 2700              		.loc 1 1001 1 view .LVU962
 2701 0026 7047     		bx	lr
 2702              		.cfi_endproc
 2703              	.LFE157:
 2704              		.size	USB_WritePacket, .-USB_WritePacket
 2705              		.section	.text.USB_ReadPacket,"ax",%progbits
 2706              		.align	1
 2707              		.p2align 4,,15
 2708              		.global	USB_ReadPacket
 2709              		.syntax unified
 2710              		.thumb
 2711              		.thumb_func
 2712              		.type	USB_ReadPacket, %function
 2713              	USB_ReadPacket:
 2714              	.LVL196:
 2715              	.LFB158:
 2716              		.loc 1 1011 1 is_stmt 1 view -0
 2717              		.cfi_startproc
 2718              		@ args = 0, pretend = 0, frame = 0
 2719              		@ frame_needed = 0, uses_anonymous_args = 0
 2720              		.loc 1 1012 3 view .LVU964
 2721              		.loc 1 1011 1 is_stmt 0 view .LVU965
 2722 0000 70B5     		push	{r4, r5, r6, lr}
 2723              		.cfi_def_cfa_offset 16
 2724              		.cfi_offset 4, -16
 2725              		.cfi_offset 5, -12
 2726              		.cfi_offset 6, -8
 2727              		.cfi_offset 14, -4
 2728              		.loc 1 1019 18 view .LVU966
 2729 0002 5FEA920E 		lsrs	lr, r2, #2
 2730              		.loc 1 1011 1 view .LVU967
 2731 0006 0546     		mov	r5, r0
 2732              	.LVL197:
 2733              		.loc 1 1013 3 is_stmt 1 view .LVU968
 2734              		.loc 1 1014 3 view .LVU969
 2735              		.loc 1 1015 3 view .LVU970
 2736              		.loc 1 1016 3 view .LVU971
ARM GAS  C:\Users\DEVELO~1\AppData\Local\Temp\cc15HDCU.s 			page 49


 2737              		.loc 1 1017 3 view .LVU972
 2738              		.loc 1 1017 12 is_stmt 0 view .LVU973
 2739 0008 02F00306 		and	r6, r2, #3
 2740              	.LVL198:
 2741              		.loc 1 1019 3 is_stmt 1 view .LVU974
 2742              		.loc 1 1019 18 view .LVU975
 2743 000c 19D0     		beq	.L227
 2744              		.loc 1 1032 5 is_stmt 0 view .LVU976
 2745 000e 00F58054 		add	r4, r0, #4096
 2746              		.loc 1 1013 12 view .LVU977
 2747 0012 8C46     		mov	ip, r1
 2748              		.loc 1 1019 10 view .LVU978
 2749 0014 0023     		movs	r3, #0
 2750              	.LVL199:
 2751              	.L224:
 2752              		.loc 1 1021 5 is_stmt 1 discriminator 3 view .LVU979
 2753              		.loc 1 1019 31 is_stmt 0 discriminator 3 view .LVU980
 2754 0016 0133     		adds	r3, r3, #1
 2755              	.LVL200:
 2756              		.loc 1 1021 5 discriminator 3 view .LVU981
 2757 0018 2268     		ldr	r2, [r4]
 2758              		.loc 1 1019 18 discriminator 3 view .LVU982
 2759 001a 9E45     		cmp	lr, r3
 2760              		.loc 1 1021 5 discriminator 3 view .LVU983
 2761 001c 4CF8042B 		str	r2, [ip], #4	@ unaligned
 2762              	.LVL201:
 2763              		.loc 1 1022 5 is_stmt 1 discriminator 3 view .LVU984
 2764              		.loc 1 1023 5 discriminator 3 view .LVU985
 2765              		.loc 1 1024 5 discriminator 3 view .LVU986
 2766              		.loc 1 1025 5 discriminator 3 view .LVU987
 2767              		.loc 1 1019 31 discriminator 3 view .LVU988
 2768              		.loc 1 1019 18 discriminator 3 view .LVU989
 2769 0020 F9D1     		bne	.L224
 2770              		.loc 1 1025 10 is_stmt 0 view .LVU990
 2771 0022 01EB8E00 		add	r0, r1, lr, lsl #2
 2772              	.LVL202:
 2773              	.L223:
 2774              		.loc 1 1029 3 is_stmt 1 view .LVU991
 2775              		.loc 1 1029 6 is_stmt 0 view .LVU992
 2776 0026 5EB1     		cbz	r6, .L222
 2777              		.loc 1 1031 5 is_stmt 1 view .LVU993
 2778              	.LVL203:
 2779              		.loc 1 1032 5 view .LVU994
 2780 0028 05F58055 		add	r5, r5, #4096
 2781              	.LVL204:
 2782              		.loc 1 1032 5 is_stmt 0 view .LVU995
 2783 002c 0644     		add	r6, r6, r0
 2784              	.LVL205:
 2785              		.loc 1 1032 5 view .LVU996
 2786 002e 0022     		movs	r2, #0
 2787 0030 2968     		ldr	r1, [r5]
 2788              	.LVL206:
 2789              	.L226:
 2790              		.loc 1 1034 5 is_stmt 1 discriminator 1 view .LVU997
 2791              		.loc 1 1036 7 discriminator 1 view .LVU998
 2792              		.loc 1 1036 43 is_stmt 0 discriminator 1 view .LVU999
 2793 0032 21FA02F3 		lsr	r3, r1, r2
ARM GAS  C:\Users\DEVELO~1\AppData\Local\Temp\cc15HDCU.s 			page 50


 2794              		.loc 1 1036 27 discriminator 1 view .LVU1000
 2795 0036 0832     		adds	r2, r2, #8
 2796              		.loc 1 1037 7 is_stmt 1 discriminator 1 view .LVU1001
 2797              	.LVL207:
 2798              		.loc 1 1038 7 discriminator 1 view .LVU1002
 2799              		.loc 1 1036 27 is_stmt 0 discriminator 1 view .LVU1003
 2800 0038 00F8013B 		strb	r3, [r0], #1
 2801              	.LVL208:
 2802              		.loc 1 1039 7 is_stmt 1 discriminator 1 view .LVU1004
 2803              		.loc 1 1040 30 discriminator 1 view .LVU1005
 2804 003c B042     		cmp	r0, r6
 2805 003e F8D1     		bne	.L226
 2806              	.LVL209:
 2807              	.L222:
 2808              		.loc 1 1044 1 is_stmt 0 view .LVU1006
 2809 0040 70BD     		pop	{r4, r5, r6, pc}
 2810              	.LVL210:
 2811              	.L227:
 2812              		.loc 1 1013 12 view .LVU1007
 2813 0042 0846     		mov	r0, r1
 2814              	.LVL211:
 2815              		.loc 1 1013 12 view .LVU1008
 2816 0044 EFE7     		b	.L223
 2817              		.cfi_endproc
 2818              	.LFE158:
 2819              		.size	USB_ReadPacket, .-USB_ReadPacket
 2820 0046 00BF     		.section	.text.USB_EPSetStall,"ax",%progbits
 2821              		.align	1
 2822              		.p2align 4,,15
 2823              		.global	USB_EPSetStall
 2824              		.syntax unified
 2825              		.thumb
 2826              		.thumb_func
 2827              		.type	USB_EPSetStall, %function
 2828              	USB_EPSetStall:
 2829              	.LVL212:
 2830              	.LFB159:
 2831              		.loc 1 1053 1 is_stmt 1 view -0
 2832              		.cfi_startproc
 2833              		@ args = 0, pretend = 0, frame = 0
 2834              		@ frame_needed = 0, uses_anonymous_args = 0
 2835              		@ link register save eliminated.
 2836              		.loc 1 1054 3 view .LVU1010
 2837              		.loc 1 1055 3 view .LVU1011
 2838              		.loc 1 1057 6 is_stmt 0 view .LVU1012
 2839 0000 4A78     		ldrb	r2, [r1, #1]	@ zero_extendqisi2
 2840              		.loc 1 1055 32 view .LVU1013
 2841 0002 0B78     		ldrb	r3, [r1]	@ zero_extendqisi2
 2842              	.LVL213:
 2843              		.loc 1 1057 3 is_stmt 1 view .LVU1014
 2844              		.loc 1 1057 6 is_stmt 0 view .LVU1015
 2845 0004 012A     		cmp	r2, #1
 2846              		.loc 1 1059 11 view .LVU1016
 2847 0006 00EB4310 		add	r0, r0, r3, lsl #5
 2848              	.LVL214:
 2849              		.loc 1 1057 6 view .LVU1017
 2850 000a 0CD0     		beq	.L251
ARM GAS  C:\Users\DEVELO~1\AppData\Local\Temp\cc15HDCU.s 			page 51


 2851              		.loc 1 1067 5 is_stmt 1 view .LVU1018
 2852              		.loc 1 1067 28 is_stmt 0 view .LVU1019
 2853 000c D0F8002B 		ldr	r2, [r0, #2816]
 2854              		.loc 1 1067 70 view .LVU1020
 2855 0010 0BB1     		cbz	r3, .L238
 2856 0012 002A     		cmp	r2, #0
 2857 0014 14DA     		bge	.L252
 2858              	.LVL215:
 2859              	.L238:
 2860              		.loc 1 1071 5 is_stmt 1 view .LVU1021
 2861              		.loc 1 1071 32 is_stmt 0 view .LVU1022
 2862 0016 D0F8003B 		ldr	r3, [r0, #2816]
 2863 001a 43F40013 		orr	r3, r3, #2097152
 2864 001e C0F8003B 		str	r3, [r0, #2816]
 2865              		.loc 1 1074 3 is_stmt 1 view .LVU1023
 2866              		.loc 1 1075 1 is_stmt 0 view .LVU1024
 2867 0022 0020     		movs	r0, #0
 2868 0024 7047     		bx	lr
 2869              	.LVL216:
 2870              	.L251:
 2871              		.loc 1 1059 5 is_stmt 1 view .LVU1025
 2872              		.loc 1 1059 27 is_stmt 0 view .LVU1026
 2873 0026 D0F80029 		ldr	r2, [r0, #2304]
 2874              		.loc 1 1059 69 view .LVU1027
 2875 002a 002A     		cmp	r2, #0
 2876 002c 00DB     		blt	.L236
 2877 002e 73B9     		cbnz	r3, .L253
 2878              	.L236:
 2879              		.loc 1 1063 5 is_stmt 1 view .LVU1028
 2880              		.loc 1 1063 31 is_stmt 0 view .LVU1029
 2881 0030 D0F80039 		ldr	r3, [r0, #2304]
 2882              	.LVL217:
 2883              		.loc 1 1063 31 view .LVU1030
 2884 0034 43F40013 		orr	r3, r3, #2097152
 2885 0038 C0F80039 		str	r3, [r0, #2304]
 2886              	.LVL218:
 2887              	.L254:
 2888              		.loc 1 1074 3 is_stmt 1 view .LVU1031
 2889              		.loc 1 1075 1 is_stmt 0 view .LVU1032
 2890 003c 0020     		movs	r0, #0
 2891 003e 7047     		bx	lr
 2892              	.LVL219:
 2893              	.L252:
 2894              		.loc 1 1069 7 is_stmt 1 view .LVU1033
 2895              		.loc 1 1069 34 is_stmt 0 view .LVU1034
 2896 0040 D0F8003B 		ldr	r3, [r0, #2816]
 2897              	.LVL220:
 2898              		.loc 1 1069 34 view .LVU1035
 2899 0044 23F08043 		bic	r3, r3, #1073741824
 2900 0048 C0F8003B 		str	r3, [r0, #2816]
 2901              	.LVL221:
 2902              		.loc 1 1069 34 view .LVU1036
 2903 004c E3E7     		b	.L238
 2904              	.LVL222:
 2905              	.L253:
 2906              		.loc 1 1061 7 is_stmt 1 view .LVU1037
 2907              		.loc 1 1061 33 is_stmt 0 view .LVU1038
ARM GAS  C:\Users\DEVELO~1\AppData\Local\Temp\cc15HDCU.s 			page 52


 2908 004e D0F80039 		ldr	r3, [r0, #2304]
 2909              	.LVL223:
 2910              		.loc 1 1061 33 view .LVU1039
 2911 0052 23F08043 		bic	r3, r3, #1073741824
 2912 0056 C0F80039 		str	r3, [r0, #2304]
 2913              	.LVL224:
 2914              		.loc 1 1063 5 is_stmt 1 view .LVU1040
 2915              		.loc 1 1063 31 is_stmt 0 view .LVU1041
 2916 005a D0F80039 		ldr	r3, [r0, #2304]
 2917 005e 43F40013 		orr	r3, r3, #2097152
 2918 0062 C0F80039 		str	r3, [r0, #2304]
 2919 0066 E9E7     		b	.L254
 2920              		.cfi_endproc
 2921              	.LFE159:
 2922              		.size	USB_EPSetStall, .-USB_EPSetStall
 2923              		.section	.text.USB_EPClearStall,"ax",%progbits
 2924              		.align	1
 2925              		.p2align 4,,15
 2926              		.global	USB_EPClearStall
 2927              		.syntax unified
 2928              		.thumb
 2929              		.thumb_func
 2930              		.type	USB_EPClearStall, %function
 2931              	USB_EPClearStall:
 2932              	.LVL225:
 2933              	.LFB160:
 2934              		.loc 1 1084 1 is_stmt 1 view -0
 2935              		.cfi_startproc
 2936              		@ args = 0, pretend = 0, frame = 0
 2937              		@ frame_needed = 0, uses_anonymous_args = 0
 2938              		@ link register save eliminated.
 2939              		.loc 1 1085 3 view .LVU1043
 2940              		.loc 1 1086 3 view .LVU1044
 2941              		.loc 1 1088 6 is_stmt 0 view .LVU1045
 2942 0000 4A78     		ldrb	r2, [r1, #1]	@ zero_extendqisi2
 2943              		.loc 1 1086 32 view .LVU1046
 2944 0002 0B78     		ldrb	r3, [r1]	@ zero_extendqisi2
 2945              	.LVL226:
 2946              		.loc 1 1088 3 is_stmt 1 view .LVU1047
 2947              		.loc 1 1088 6 is_stmt 0 view .LVU1048
 2948 0004 012A     		cmp	r2, #1
 2949              		.loc 1 1090 31 view .LVU1049
 2950 0006 00EB4310 		add	r0, r0, r3, lsl #5
 2951              	.LVL227:
 2952              		.loc 1 1088 6 view .LVU1050
 2953 000a 13D0     		beq	.L260
 2954              		.loc 1 1098 5 is_stmt 1 view .LVU1051
 2955              		.loc 1 1098 32 is_stmt 0 view .LVU1052
 2956 000c D0F8003B 		ldr	r3, [r0, #2816]
 2957              	.LVL228:
 2958              		.loc 1 1098 32 view .LVU1053
 2959 0010 23F40013 		bic	r3, r3, #2097152
 2960 0014 C0F8003B 		str	r3, [r0, #2816]
 2961              	.LVL229:
 2962              		.loc 1 1099 5 is_stmt 1 view .LVU1054
 2963              		.loc 1 1099 36 is_stmt 0 view .LVU1055
 2964 0018 0B79     		ldrb	r3, [r1, #4]	@ zero_extendqisi2
ARM GAS  C:\Users\DEVELO~1\AppData\Local\Temp\cc15HDCU.s 			page 53


 2965              		.loc 1 1099 8 view .LVU1056
 2966 001a 023B     		subs	r3, r3, #2
 2967 001c 012B     		cmp	r3, #1
 2968 001e 01D9     		bls	.L261
 2969              	.L258:
 2970              		.loc 1 1104 3 is_stmt 1 view .LVU1057
 2971              		.loc 1 1105 1 is_stmt 0 view .LVU1058
 2972 0020 0020     		movs	r0, #0
 2973 0022 7047     		bx	lr
 2974              	.L261:
 2975              		.loc 1 1101 7 is_stmt 1 view .LVU1059
 2976              		.loc 1 1101 34 is_stmt 0 view .LVU1060
 2977 0024 D0F8003B 		ldr	r3, [r0, #2816]
 2978 0028 43F08053 		orr	r3, r3, #268435456
 2979 002c C0F8003B 		str	r3, [r0, #2816]
 2980              		.loc 1 1104 3 is_stmt 1 view .LVU1061
 2981              		.loc 1 1105 1 is_stmt 0 view .LVU1062
 2982 0030 0020     		movs	r0, #0
 2983 0032 7047     		bx	lr
 2984              	.LVL230:
 2985              	.L260:
 2986              		.loc 1 1090 5 is_stmt 1 view .LVU1063
 2987              		.loc 1 1090 31 is_stmt 0 view .LVU1064
 2988 0034 D0F80039 		ldr	r3, [r0, #2304]
 2989              	.LVL231:
 2990              		.loc 1 1090 31 view .LVU1065
 2991 0038 23F40013 		bic	r3, r3, #2097152
 2992 003c C0F80039 		str	r3, [r0, #2304]
 2993              	.LVL232:
 2994              		.loc 1 1091 5 is_stmt 1 view .LVU1066
 2995              		.loc 1 1091 36 is_stmt 0 view .LVU1067
 2996 0040 0B79     		ldrb	r3, [r1, #4]	@ zero_extendqisi2
 2997              		.loc 1 1091 8 view .LVU1068
 2998 0042 023B     		subs	r3, r3, #2
 2999 0044 012B     		cmp	r3, #1
 3000 0046 EBD8     		bhi	.L258
 3001              		.loc 1 1093 7 is_stmt 1 view .LVU1069
 3002              		.loc 1 1093 33 is_stmt 0 view .LVU1070
 3003 0048 D0F80039 		ldr	r3, [r0, #2304]
 3004 004c 43F08053 		orr	r3, r3, #268435456
 3005 0050 C0F80039 		str	r3, [r0, #2304]
 3006              		.loc 1 1104 3 is_stmt 1 view .LVU1071
 3007              		.loc 1 1105 1 is_stmt 0 view .LVU1072
 3008 0054 0020     		movs	r0, #0
 3009 0056 7047     		bx	lr
 3010              		.cfi_endproc
 3011              	.LFE160:
 3012              		.size	USB_EPClearStall, .-USB_EPClearStall
 3013              		.section	.text.USB_StopDevice,"ax",%progbits
 3014              		.align	1
 3015              		.p2align 4,,15
 3016              		.global	USB_StopDevice
 3017              		.syntax unified
 3018              		.thumb
 3019              		.thumb_func
 3020              		.type	USB_StopDevice, %function
 3021              	USB_StopDevice:
ARM GAS  C:\Users\DEVELO~1\AppData\Local\Temp\cc15HDCU.s 			page 54


 3022              	.LVL233:
 3023              	.LFB161:
 3024              		.loc 1 1113 1 is_stmt 1 view -0
 3025              		.cfi_startproc
 3026              		@ args = 0, pretend = 0, frame = 0
 3027              		@ frame_needed = 0, uses_anonymous_args = 0
 3028              		.loc 1 1114 3 view .LVU1074
 3029              		.loc 1 1115 3 view .LVU1075
 3030              		.loc 1 1113 1 is_stmt 0 view .LVU1076
 3031 0000 10B5     		push	{r4, lr}
 3032              		.cfi_def_cfa_offset 8
 3033              		.cfi_offset 4, -8
 3034              		.cfi_offset 14, -4
 3035              		.loc 1 1121 27 view .LVU1077
 3036 0002 4FF67F32 		movw	r2, #64383
 3037              		.loc 1 1113 1 view .LVU1078
 3038 0006 0446     		mov	r4, r0
 3039              	.LVL234:
 3040              		.loc 1 1116 3 is_stmt 1 view .LVU1079
 3041              		.loc 1 1119 3 view .LVU1080
 3042              		.loc 1 1119 18 view .LVU1081
 3043 0008 00F51063 		add	r3, r0, #2304
 3044 000c 00F52E6C 		add	ip, r0, #2784
 3045              	.LVL235:
 3046              	.L263:
 3047              		.loc 1 1121 5 discriminator 3 view .LVU1082
 3048              		.loc 1 1121 27 is_stmt 0 discriminator 3 view .LVU1083
 3049 0010 9A60     		str	r2, [r3, #8]
 3050              		.loc 1 1122 5 is_stmt 1 discriminator 3 view .LVU1084
 3051 0012 03F50071 		add	r1, r3, #512
 3052              		.loc 1 1119 18 is_stmt 0 discriminator 3 view .LVU1085
 3053 0016 2033     		adds	r3, r3, #32
 3054              		.loc 1 1122 28 discriminator 3 view .LVU1086
 3055 0018 8A60     		str	r2, [r1, #8]
 3056              		.loc 1 1119 26 is_stmt 1 discriminator 3 view .LVU1087
 3057              		.loc 1 1119 18 discriminator 3 view .LVU1088
 3058 001a 6345     		cmp	r3, ip
 3059 001c F8D1     		bne	.L263
 3060              		.loc 1 1126 3 view .LVU1089
 3061              		.loc 1 1126 25 is_stmt 0 view .LVU1090
 3062 001e 0022     		movs	r2, #0
 3063              		.loc 1 1131 9 view .LVU1091
 3064 0020 2046     		mov	r0, r4
 3065              	.LVL236:
 3066              		.loc 1 1126 25 view .LVU1092
 3067 0022 C4F81028 		str	r2, [r4, #2064]
 3068              		.loc 1 1127 3 is_stmt 1 view .LVU1093
 3069              		.loc 1 1127 25 is_stmt 0 view .LVU1094
 3070 0026 C4F81428 		str	r2, [r4, #2068]
 3071              		.loc 1 1128 3 is_stmt 1 view .LVU1095
 3072              		.loc 1 1128 25 is_stmt 0 view .LVU1096
 3073 002a C4F81C28 		str	r2, [r4, #2076]
 3074              		.loc 1 1131 3 is_stmt 1 view .LVU1097
 3075              		.loc 1 1131 9 is_stmt 0 view .LVU1098
 3076 002e FFF7FEFF 		bl	USB_FlushRxFifo
 3077              	.LVL237:
 3078              		.loc 1 1132 3 is_stmt 1 view .LVU1099
ARM GAS  C:\Users\DEVELO~1\AppData\Local\Temp\cc15HDCU.s 			page 55


 3079              		.loc 1 1132 6 is_stmt 0 view .LVU1100
 3080 0032 00B1     		cbz	r0, .L267
 3081              		.loc 1 1144 1 view .LVU1101
 3082 0034 10BD     		pop	{r4, pc}
 3083              	.LVL238:
 3084              	.L267:
 3085              		.loc 1 1137 3 is_stmt 1 view .LVU1102
 3086              		.loc 1 1137 9 is_stmt 0 view .LVU1103
 3087 0036 2046     		mov	r0, r4
 3088              	.LVL239:
 3089              		.loc 1 1137 9 view .LVU1104
 3090 0038 1021     		movs	r1, #16
 3091              		.loc 1 1144 1 view .LVU1105
 3092 003a BDE81040 		pop	{r4, lr}
 3093              		.cfi_restore 14
 3094              		.cfi_restore 4
 3095              		.cfi_def_cfa_offset 0
 3096              	.LVL240:
 3097              		.loc 1 1137 9 view .LVU1106
 3098 003e FFF7FEBF 		b	USB_FlushTxFifo
 3099              	.LVL241:
 3100              		.loc 1 1137 9 view .LVU1107
 3101              		.cfi_endproc
 3102              	.LFE161:
 3103              		.size	USB_StopDevice, .-USB_StopDevice
 3104 0042 00BF     		.section	.text.USB_SetDevAddress,"ax",%progbits
 3105              		.align	1
 3106              		.p2align 4,,15
 3107              		.global	USB_SetDevAddress
 3108              		.syntax unified
 3109              		.thumb
 3110              		.thumb_func
 3111              		.type	USB_SetDevAddress, %function
 3112              	USB_SetDevAddress:
 3113              	.LVL242:
 3114              	.LFB162:
 3115              		.loc 1 1154 1 is_stmt 1 view -0
 3116              		.cfi_startproc
 3117              		@ args = 0, pretend = 0, frame = 0
 3118              		@ frame_needed = 0, uses_anonymous_args = 0
 3119              		@ link register save eliminated.
 3120              		.loc 1 1155 3 view .LVU1109
 3121              		.loc 1 1154 1 is_stmt 0 view .LVU1110
 3122 0000 0346     		mov	r3, r0
 3123              		.loc 1 1158 43 view .LVU1111
 3124 0002 0901     		lsls	r1, r1, #4
 3125              	.LVL243:
 3126              		.loc 1 1161 1 view .LVU1112
 3127 0004 0020     		movs	r0, #0
 3128              	.LVL244:
 3129              		.loc 1 1157 3 is_stmt 1 view .LVU1113
 3130              		.loc 1 1157 21 is_stmt 0 view .LVU1114
 3131 0006 D3F80028 		ldr	r2, [r3, #2048]
 3132              		.loc 1 1158 49 view .LVU1115
 3133 000a 01F4FE61 		and	r1, r1, #2032
 3134              		.loc 1 1157 21 view .LVU1116
 3135 000e 22F4FE62 		bic	r2, r2, #2032
ARM GAS  C:\Users\DEVELO~1\AppData\Local\Temp\cc15HDCU.s 			page 56


 3136 0012 C3F80028 		str	r2, [r3, #2048]
 3137              		.loc 1 1158 3 is_stmt 1 view .LVU1117
 3138              		.loc 1 1158 21 is_stmt 0 view .LVU1118
 3139 0016 D3F80028 		ldr	r2, [r3, #2048]
 3140 001a 1143     		orrs	r1, r1, r2
 3141 001c C3F80018 		str	r1, [r3, #2048]
 3142              		.loc 1 1160 3 is_stmt 1 view .LVU1119
 3143              		.loc 1 1161 1 is_stmt 0 view .LVU1120
 3144 0020 7047     		bx	lr
 3145              		.cfi_endproc
 3146              	.LFE162:
 3147              		.size	USB_SetDevAddress, .-USB_SetDevAddress
 3148 0022 00BF     		.section	.text.USB_DevConnect,"ax",%progbits
 3149              		.align	1
 3150              		.p2align 4,,15
 3151              		.global	USB_DevConnect
 3152              		.syntax unified
 3153              		.thumb
 3154              		.thumb_func
 3155              		.type	USB_DevConnect, %function
 3156              	USB_DevConnect:
 3157              	.LVL245:
 3158              	.LFB163:
 3159              		.loc 1 1169 1 is_stmt 1 view -0
 3160              		.cfi_startproc
 3161              		@ args = 0, pretend = 0, frame = 0
 3162              		@ frame_needed = 0, uses_anonymous_args = 0
 3163              		@ link register save eliminated.
 3164              		.loc 1 1170 3 view .LVU1122
 3165              		.loc 1 1169 1 is_stmt 0 view .LVU1123
 3166 0000 0346     		mov	r3, r0
 3167              		.loc 1 1178 1 view .LVU1124
 3168 0002 0020     		movs	r0, #0
 3169              	.LVL246:
 3170              		.loc 1 1173 3 is_stmt 1 view .LVU1125
 3171              		.loc 1 1173 16 is_stmt 0 view .LVU1126
 3172 0004 D3F8002E 		ldr	r2, [r3, #3584]
 3173              		.loc 1 1175 21 view .LVU1127
 3174 0008 03F50061 		add	r1, r3, #2048
 3175              		.loc 1 1173 16 view .LVU1128
 3176 000c 22F00302 		bic	r2, r2, #3
 3177 0010 C3F8002E 		str	r2, [r3, #3584]
 3178              		.loc 1 1175 3 is_stmt 1 view .LVU1129
 3179              		.loc 1 1175 21 is_stmt 0 view .LVU1130
 3180 0014 D3F80438 		ldr	r3, [r3, #2052]
 3181              	.LVL247:
 3182              		.loc 1 1175 21 view .LVU1131
 3183 0018 23F00203 		bic	r3, r3, #2
 3184 001c 4B60     		str	r3, [r1, #4]
 3185              		.loc 1 1177 3 is_stmt 1 view .LVU1132
 3186              		.loc 1 1178 1 is_stmt 0 view .LVU1133
 3187 001e 7047     		bx	lr
 3188              		.cfi_endproc
 3189              	.LFE163:
 3190              		.size	USB_DevConnect, .-USB_DevConnect
 3191              		.section	.text.USB_DevDisconnect,"ax",%progbits
 3192              		.align	1
ARM GAS  C:\Users\DEVELO~1\AppData\Local\Temp\cc15HDCU.s 			page 57


 3193              		.p2align 4,,15
 3194              		.global	USB_DevDisconnect
 3195              		.syntax unified
 3196              		.thumb
 3197              		.thumb_func
 3198              		.type	USB_DevDisconnect, %function
 3199              	USB_DevDisconnect:
 3200              	.LVL248:
 3201              	.LFB164:
 3202              		.loc 1 1186 1 is_stmt 1 view -0
 3203              		.cfi_startproc
 3204              		@ args = 0, pretend = 0, frame = 0
 3205              		@ frame_needed = 0, uses_anonymous_args = 0
 3206              		@ link register save eliminated.
 3207              		.loc 1 1187 3 view .LVU1135
 3208              		.loc 1 1186 1 is_stmt 0 view .LVU1136
 3209 0000 0346     		mov	r3, r0
 3210              		.loc 1 1195 1 view .LVU1137
 3211 0002 0020     		movs	r0, #0
 3212              	.LVL249:
 3213              		.loc 1 1190 3 is_stmt 1 view .LVU1138
 3214              		.loc 1 1190 16 is_stmt 0 view .LVU1139
 3215 0004 D3F8002E 		ldr	r2, [r3, #3584]
 3216              		.loc 1 1192 21 view .LVU1140
 3217 0008 03F50061 		add	r1, r3, #2048
 3218              		.loc 1 1190 16 view .LVU1141
 3219 000c 22F00302 		bic	r2, r2, #3
 3220 0010 C3F8002E 		str	r2, [r3, #3584]
 3221              		.loc 1 1192 3 is_stmt 1 view .LVU1142
 3222              		.loc 1 1192 21 is_stmt 0 view .LVU1143
 3223 0014 D3F80438 		ldr	r3, [r3, #2052]
 3224              	.LVL250:
 3225              		.loc 1 1192 21 view .LVU1144
 3226 0018 43F00203 		orr	r3, r3, #2
 3227 001c 4B60     		str	r3, [r1, #4]
 3228              		.loc 1 1194 3 is_stmt 1 view .LVU1145
 3229              		.loc 1 1195 1 is_stmt 0 view .LVU1146
 3230 001e 7047     		bx	lr
 3231              		.cfi_endproc
 3232              	.LFE164:
 3233              		.size	USB_DevDisconnect, .-USB_DevDisconnect
 3234              		.section	.text.USB_ReadInterrupts,"ax",%progbits
 3235              		.align	1
 3236              		.p2align 4,,15
 3237              		.global	USB_ReadInterrupts
 3238              		.syntax unified
 3239              		.thumb
 3240              		.thumb_func
 3241              		.type	USB_ReadInterrupts, %function
 3242              	USB_ReadInterrupts:
 3243              	.LVL251:
 3244              	.LFB165:
 3245              		.loc 1 1203 1 is_stmt 1 view -0
 3246              		.cfi_startproc
 3247              		@ args = 0, pretend = 0, frame = 0
 3248              		@ frame_needed = 0, uses_anonymous_args = 0
 3249              		@ link register save eliminated.
ARM GAS  C:\Users\DEVELO~1\AppData\Local\Temp\cc15HDCU.s 			page 58


 3250              		.loc 1 1204 3 view .LVU1148
 3251              		.loc 1 1206 3 view .LVU1149
 3252              		.loc 1 1206 10 is_stmt 0 view .LVU1150
 3253 0000 4269     		ldr	r2, [r0, #20]
 3254              	.LVL252:
 3255              		.loc 1 1207 3 is_stmt 1 view .LVU1151
 3256              		.loc 1 1207 17 is_stmt 0 view .LVU1152
 3257 0002 8069     		ldr	r0, [r0, #24]
 3258              	.LVL253:
 3259              		.loc 1 1209 3 is_stmt 1 view .LVU1153
 3260              		.loc 1 1210 1 is_stmt 0 view .LVU1154
 3261 0004 1040     		ands	r0, r0, r2
 3262              	.LVL254:
 3263              		.loc 1 1210 1 view .LVU1155
 3264 0006 7047     		bx	lr
 3265              		.cfi_endproc
 3266              	.LFE165:
 3267              		.size	USB_ReadInterrupts, .-USB_ReadInterrupts
 3268              		.section	.text.USB_ReadChInterrupts,"ax",%progbits
 3269              		.align	1
 3270              		.p2align 4,,15
 3271              		.global	USB_ReadChInterrupts
 3272              		.syntax unified
 3273              		.thumb
 3274              		.thumb_func
 3275              		.type	USB_ReadChInterrupts, %function
 3276              	USB_ReadChInterrupts:
 3277              	.LVL255:
 3278              	.LFB166:
 3279              		.loc 1 1219 1 is_stmt 1 view -0
 3280              		.cfi_startproc
 3281              		@ args = 0, pretend = 0, frame = 0
 3282              		@ frame_needed = 0, uses_anonymous_args = 0
 3283              		@ link register save eliminated.
 3284              		.loc 1 1220 3 view .LVU1157
 3285              		.loc 1 1221 3 view .LVU1158
 3286              		.loc 1 1223 3 view .LVU1159
 3287              		.loc 1 1223 12 is_stmt 0 view .LVU1160
 3288 0000 00EB4111 		add	r1, r0, r1, lsl #5
 3289              	.LVL256:
 3290              		.loc 1 1223 10 view .LVU1161
 3291 0004 D1F80805 		ldr	r0, [r1, #1288]
 3292              	.LVL257:
 3293              		.loc 1 1224 3 is_stmt 1 view .LVU1162
 3294              		.loc 1 1224 27 is_stmt 0 view .LVU1163
 3295 0008 D1F80C35 		ldr	r3, [r1, #1292]
 3296              	.LVL258:
 3297              		.loc 1 1226 3 is_stmt 1 view .LVU1164
 3298              		.loc 1 1227 1 is_stmt 0 view .LVU1165
 3299 000c 1840     		ands	r0, r0, r3
 3300              	.LVL259:
 3301              		.loc 1 1227 1 view .LVU1166
 3302 000e 7047     		bx	lr
 3303              		.cfi_endproc
 3304              	.LFE166:
 3305              		.size	USB_ReadChInterrupts, .-USB_ReadChInterrupts
 3306              		.section	.text.USB_ReadDevAllOutEpInterrupt,"ax",%progbits
ARM GAS  C:\Users\DEVELO~1\AppData\Local\Temp\cc15HDCU.s 			page 59


 3307              		.align	1
 3308              		.p2align 4,,15
 3309              		.global	USB_ReadDevAllOutEpInterrupt
 3310              		.syntax unified
 3311              		.thumb
 3312              		.thumb_func
 3313              		.type	USB_ReadDevAllOutEpInterrupt, %function
 3314              	USB_ReadDevAllOutEpInterrupt:
 3315              	.LVL260:
 3316              	.LFB167:
 3317              		.loc 1 1235 1 is_stmt 1 view -0
 3318              		.cfi_startproc
 3319              		@ args = 0, pretend = 0, frame = 0
 3320              		@ frame_needed = 0, uses_anonymous_args = 0
 3321              		@ link register save eliminated.
 3322              		.loc 1 1236 3 view .LVU1168
 3323              		.loc 1 1237 3 view .LVU1169
 3324              		.loc 1 1239 3 view .LVU1170
 3325              		.loc 1 1239 11 is_stmt 0 view .LVU1171
 3326 0000 D0F81838 		ldr	r3, [r0, #2072]
 3327              	.LVL261:
 3328              		.loc 1 1240 3 is_stmt 1 view .LVU1172
 3329              		.loc 1 1240 24 is_stmt 0 view .LVU1173
 3330 0004 D0F81C08 		ldr	r0, [r0, #2076]
 3331              	.LVL262:
 3332              		.loc 1 1242 3 is_stmt 1 view .LVU1174
 3333              		.loc 1 1240 10 is_stmt 0 view .LVU1175
 3334 0008 1840     		ands	r0, r0, r3
 3335              	.LVL263:
 3336              		.loc 1 1243 1 view .LVU1176
 3337 000a 000C     		lsrs	r0, r0, #16
 3338              	.LVL264:
 3339              		.loc 1 1243 1 view .LVU1177
 3340 000c 7047     		bx	lr
 3341              		.cfi_endproc
 3342              	.LFE167:
 3343              		.size	USB_ReadDevAllOutEpInterrupt, .-USB_ReadDevAllOutEpInterrupt
 3344 000e 00BF     		.section	.text.USB_ReadDevAllInEpInterrupt,"ax",%progbits
 3345              		.align	1
 3346              		.p2align 4,,15
 3347              		.global	USB_ReadDevAllInEpInterrupt
 3348              		.syntax unified
 3349              		.thumb
 3350              		.thumb_func
 3351              		.type	USB_ReadDevAllInEpInterrupt, %function
 3352              	USB_ReadDevAllInEpInterrupt:
 3353              	.LVL265:
 3354              	.LFB168:
 3355              		.loc 1 1251 1 is_stmt 1 view -0
 3356              		.cfi_startproc
 3357              		@ args = 0, pretend = 0, frame = 0
 3358              		@ frame_needed = 0, uses_anonymous_args = 0
 3359              		@ link register save eliminated.
 3360              		.loc 1 1252 3 view .LVU1179
 3361              		.loc 1 1253 3 view .LVU1180
 3362              		.loc 1 1255 3 view .LVU1181
 3363              		.loc 1 1255 11 is_stmt 0 view .LVU1182
ARM GAS  C:\Users\DEVELO~1\AppData\Local\Temp\cc15HDCU.s 			page 60


 3364 0000 D0F81838 		ldr	r3, [r0, #2072]
 3365              	.LVL266:
 3366              		.loc 1 1256 3 is_stmt 1 view .LVU1183
 3367              		.loc 1 1256 24 is_stmt 0 view .LVU1184
 3368 0004 D0F81C08 		ldr	r0, [r0, #2076]
 3369              	.LVL267:
 3370              		.loc 1 1258 3 is_stmt 1 view .LVU1185
 3371              		.loc 1 1256 10 is_stmt 0 view .LVU1186
 3372 0008 1840     		ands	r0, r0, r3
 3373              	.LVL268:
 3374              		.loc 1 1259 1 view .LVU1187
 3375 000a 80B2     		uxth	r0, r0
 3376              	.LVL269:
 3377              		.loc 1 1259 1 view .LVU1188
 3378 000c 7047     		bx	lr
 3379              		.cfi_endproc
 3380              	.LFE168:
 3381              		.size	USB_ReadDevAllInEpInterrupt, .-USB_ReadDevAllInEpInterrupt
 3382 000e 00BF     		.section	.text.USB_ReadDevOutEPInterrupt,"ax",%progbits
 3383              		.align	1
 3384              		.p2align 4,,15
 3385              		.global	USB_ReadDevOutEPInterrupt
 3386              		.syntax unified
 3387              		.thumb
 3388              		.thumb_func
 3389              		.type	USB_ReadDevOutEPInterrupt, %function
 3390              	USB_ReadDevOutEPInterrupt:
 3391              	.LVL270:
 3392              	.LFB169:
 3393              		.loc 1 1269 1 is_stmt 1 view -0
 3394              		.cfi_startproc
 3395              		@ args = 0, pretend = 0, frame = 0
 3396              		@ frame_needed = 0, uses_anonymous_args = 0
 3397              		@ link register save eliminated.
 3398              		.loc 1 1270 3 view .LVU1190
 3399              		.loc 1 1271 3 view .LVU1191
 3400              		.loc 1 1273 3 view .LVU1192
 3401              		.loc 1 1273 13 is_stmt 0 view .LVU1193
 3402 0000 00EB4111 		add	r1, r0, r1, lsl #5
 3403              	.LVL271:
 3404              		.loc 1 1274 13 view .LVU1194
 3405 0004 00F50060 		add	r0, r0, #2048
 3406              	.LVL272:
 3407              		.loc 1 1273 11 view .LVU1195
 3408 0008 D1F8082B 		ldr	r2, [r1, #2824]
 3409              	.LVL273:
 3410              		.loc 1 1274 3 is_stmt 1 view .LVU1196
 3411              		.loc 1 1274 24 is_stmt 0 view .LVU1197
 3412 000c 4069     		ldr	r0, [r0, #20]
 3413              	.LVL274:
 3414              		.loc 1 1276 3 is_stmt 1 view .LVU1198
 3415              		.loc 1 1277 1 is_stmt 0 view .LVU1199
 3416 000e 1040     		ands	r0, r0, r2
 3417              	.LVL275:
 3418              		.loc 1 1277 1 view .LVU1200
 3419 0010 7047     		bx	lr
 3420              		.cfi_endproc
ARM GAS  C:\Users\DEVELO~1\AppData\Local\Temp\cc15HDCU.s 			page 61


 3421              	.LFE169:
 3422              		.size	USB_ReadDevOutEPInterrupt, .-USB_ReadDevOutEPInterrupt
 3423 0012 00BF     		.section	.text.USB_ReadDevInEPInterrupt,"ax",%progbits
 3424              		.align	1
 3425              		.p2align 4,,15
 3426              		.global	USB_ReadDevInEPInterrupt
 3427              		.syntax unified
 3428              		.thumb
 3429              		.thumb_func
 3430              		.type	USB_ReadDevInEPInterrupt, %function
 3431              	USB_ReadDevInEPInterrupt:
 3432              	.LVL276:
 3433              	.LFB170:
 3434              		.loc 1 1287 1 is_stmt 1 view -0
 3435              		.cfi_startproc
 3436              		@ args = 0, pretend = 0, frame = 0
 3437              		@ frame_needed = 0, uses_anonymous_args = 0
 3438              		@ link register save eliminated.
 3439              		.loc 1 1288 3 view .LVU1202
 3440              		.loc 1 1289 3 view .LVU1203
 3441              		.loc 1 1290 3 view .LVU1204
 3442              		.loc 1 1291 3 view .LVU1205
 3443              		.loc 1 1293 3 view .LVU1206
 3444              		.loc 1 1293 7 is_stmt 0 view .LVU1207
 3445 0000 D0F81028 		ldr	r2, [r0, #2064]
 3446              	.LVL277:
 3447              		.loc 1 1294 3 is_stmt 1 view .LVU1208
 3448              		.loc 1 1294 7 is_stmt 0 view .LVU1209
 3449 0004 D0F83438 		ldr	r3, [r0, #2100]
 3450              	.LVL278:
 3451              		.loc 1 1295 3 is_stmt 1 view .LVU1210
 3452              		.loc 1 1296 3 view .LVU1211
 3453              		.loc 1 1296 12 is_stmt 0 view .LVU1212
 3454 0008 00EB4110 		add	r0, r0, r1, lsl #5
 3455              	.LVL279:
 3456              		.loc 1 1295 26 view .LVU1213
 3457 000c 01F00F01 		and	r1, r1, #15
 3458              	.LVL280:
 3459              		.loc 1 1296 38 view .LVU1214
 3460 0010 D0F80809 		ldr	r0, [r0, #2312]
 3461              	.LVL281:
 3462              		.loc 1 1298 3 is_stmt 1 view .LVU1215
 3463              		.loc 1 1295 16 is_stmt 0 view .LVU1216
 3464 0014 CB40     		lsrs	r3, r3, r1
 3465              	.LVL282:
 3466              		.loc 1 1295 50 view .LVU1217
 3467 0016 DB01     		lsls	r3, r3, #7
 3468 0018 DBB2     		uxtb	r3, r3
 3469              		.loc 1 1295 7 view .LVU1218
 3470 001a 1343     		orrs	r3, r3, r2
 3471              		.loc 1 1299 1 view .LVU1219
 3472 001c 1840     		ands	r0, r0, r3
 3473 001e 7047     		bx	lr
 3474              		.cfi_endproc
 3475              	.LFE170:
 3476              		.size	USB_ReadDevInEPInterrupt, .-USB_ReadDevInEPInterrupt
 3477              		.section	.text.USB_ClearInterrupts,"ax",%progbits
ARM GAS  C:\Users\DEVELO~1\AppData\Local\Temp\cc15HDCU.s 			page 62


 3478              		.align	1
 3479              		.p2align 4,,15
 3480              		.global	USB_ClearInterrupts
 3481              		.syntax unified
 3482              		.thumb
 3483              		.thumb_func
 3484              		.type	USB_ClearInterrupts, %function
 3485              	USB_ClearInterrupts:
 3486              	.LVL283:
 3487              	.LFB171:
 3488              		.loc 1 1308 1 is_stmt 1 view -0
 3489              		.cfi_startproc
 3490              		@ args = 0, pretend = 0, frame = 0
 3491              		@ frame_needed = 0, uses_anonymous_args = 0
 3492              		@ link register save eliminated.
 3493              		.loc 1 1309 3 view .LVU1221
 3494              		.loc 1 1309 17 is_stmt 0 view .LVU1222
 3495 0000 4369     		ldr	r3, [r0, #20]
 3496 0002 0B40     		ands	r3, r3, r1
 3497 0004 4361     		str	r3, [r0, #20]
 3498              		.loc 1 1310 1 view .LVU1223
 3499 0006 7047     		bx	lr
 3500              		.cfi_endproc
 3501              	.LFE171:
 3502              		.size	USB_ClearInterrupts, .-USB_ClearInterrupts
 3503              		.section	.text.USB_GetMode,"ax",%progbits
 3504              		.align	1
 3505              		.p2align 4,,15
 3506              		.global	USB_GetMode
 3507              		.syntax unified
 3508              		.thumb
 3509              		.thumb_func
 3510              		.type	USB_GetMode, %function
 3511              	USB_GetMode:
 3512              	.LVL284:
 3513              	.LFB172:
 3514              		.loc 1 1321 1 is_stmt 1 view -0
 3515              		.cfi_startproc
 3516              		@ args = 0, pretend = 0, frame = 0
 3517              		@ frame_needed = 0, uses_anonymous_args = 0
 3518              		@ link register save eliminated.
 3519              		.loc 1 1322 3 view .LVU1225
 3520              		.loc 1 1322 16 is_stmt 0 view .LVU1226
 3521 0000 4069     		ldr	r0, [r0, #20]
 3522              	.LVL285:
 3523              		.loc 1 1323 1 view .LVU1227
 3524 0002 00F00100 		and	r0, r0, #1
 3525 0006 7047     		bx	lr
 3526              		.cfi_endproc
 3527              	.LFE172:
 3528              		.size	USB_GetMode, .-USB_GetMode
 3529              		.section	.text.USB_ActivateSetup,"ax",%progbits
 3530              		.align	1
 3531              		.p2align 4,,15
 3532              		.global	USB_ActivateSetup
 3533              		.syntax unified
 3534              		.thumb
ARM GAS  C:\Users\DEVELO~1\AppData\Local\Temp\cc15HDCU.s 			page 63


 3535              		.thumb_func
 3536              		.type	USB_ActivateSetup, %function
 3537              	USB_ActivateSetup:
 3538              	.LVL286:
 3539              	.LFB173:
 3540              		.loc 1 1331 1 is_stmt 1 view -0
 3541              		.cfi_startproc
 3542              		@ args = 0, pretend = 0, frame = 0
 3543              		@ frame_needed = 0, uses_anonymous_args = 0
 3544              		@ link register save eliminated.
 3545              		.loc 1 1332 3 view .LVU1229
 3546              		.loc 1 1331 1 is_stmt 0 view .LVU1230
 3547 0000 0346     		mov	r3, r0
 3548              		.loc 1 1335 26 view .LVU1231
 3549 0002 084A     		ldr	r2, .L281
 3550              		.loc 1 1340 1 view .LVU1232
 3551 0004 0020     		movs	r0, #0
 3552              	.LVL287:
 3553              		.loc 1 1335 3 is_stmt 1 view .LVU1233
 3554              		.loc 1 1337 21 is_stmt 0 view .LVU1234
 3555 0006 03F50061 		add	r1, r3, #2048
 3556              		.loc 1 1331 1 view .LVU1235
 3557 000a 10B4     		push	{r4}
 3558              		.cfi_def_cfa_offset 4
 3559              		.cfi_offset 4, -4
 3560              		.loc 1 1335 26 view .LVU1236
 3561 000c D3F80049 		ldr	r4, [r3, #2304]
 3562 0010 2240     		ands	r2, r2, r4
 3563              		.loc 1 1340 1 view .LVU1237
 3564 0012 10BC     		pop	{r4}
 3565              		.cfi_restore 4
 3566              		.cfi_def_cfa_offset 0
 3567              		.loc 1 1335 26 view .LVU1238
 3568 0014 C3F80029 		str	r2, [r3, #2304]
 3569              		.loc 1 1337 3 is_stmt 1 view .LVU1239
 3570              		.loc 1 1337 21 is_stmt 0 view .LVU1240
 3571 0018 D3F80438 		ldr	r3, [r3, #2052]
 3572              	.LVL288:
 3573              		.loc 1 1337 21 view .LVU1241
 3574 001c 43F48073 		orr	r3, r3, #256
 3575 0020 4B60     		str	r3, [r1, #4]
 3576              		.loc 1 1339 3 is_stmt 1 view .LVU1242
 3577              		.loc 1 1340 1 is_stmt 0 view .LVU1243
 3578 0022 7047     		bx	lr
 3579              	.L282:
 3580              		.align	2
 3581              	.L281:
 3582 0024 00F8FFFF 		.word	-2048
 3583              		.cfi_endproc
 3584              	.LFE173:
 3585              		.size	USB_ActivateSetup, .-USB_ActivateSetup
 3586              		.section	.text.USB_EP0_OutStart,"ax",%progbits
 3587              		.align	1
 3588              		.p2align 4,,15
 3589              		.global	USB_EP0_OutStart
 3590              		.syntax unified
 3591              		.thumb
ARM GAS  C:\Users\DEVELO~1\AppData\Local\Temp\cc15HDCU.s 			page 64


 3592              		.thumb_func
 3593              		.type	USB_EP0_OutStart, %function
 3594              	USB_EP0_OutStart:
 3595              	.LVL289:
 3596              	.LFB174:
 3597              		.loc 1 1353 1 is_stmt 1 view -0
 3598              		.cfi_startproc
 3599              		@ args = 0, pretend = 0, frame = 0
 3600              		@ frame_needed = 0, uses_anonymous_args = 0
 3601              		@ link register save eliminated.
 3602              		.loc 1 1354 3 view .LVU1245
 3603              		.loc 1 1357 6 is_stmt 0 view .LVU1246
 3604 0000 134B     		ldr	r3, .L290
 3605              	.LVL290:
 3606              		.loc 1 1355 3 is_stmt 1 view .LVU1247
 3607              		.loc 1 1353 1 is_stmt 0 view .LVU1248
 3608 0002 10B4     		push	{r4}
 3609              		.cfi_def_cfa_offset 4
 3610              		.cfi_offset 4, -4
 3611              		.loc 1 1355 12 view .LVU1249
 3612 0004 046C     		ldr	r4, [r0, #64]
 3613              	.LVL291:
 3614              		.loc 1 1357 3 is_stmt 1 view .LVU1250
 3615              		.loc 1 1357 6 is_stmt 0 view .LVU1251
 3616 0006 9C42     		cmp	r4, r3
 3617 0008 19D8     		bhi	.L284
 3618              		.loc 1 1359 10 view .LVU1252
 3619 000a 00F53060 		add	r0, r0, #2816
 3620              	.LVL292:
 3621              	.L285:
 3622              		.loc 1 1365 3 is_stmt 1 view .LVU1253
 3623              		.loc 1 1365 28 is_stmt 0 view .LVU1254
 3624 000e 0023     		movs	r3, #0
 3625              		.loc 1 1370 6 view .LVU1255
 3626 0010 0129     		cmp	r1, #1
 3627              		.loc 1 1365 28 view .LVU1256
 3628 0012 0361     		str	r3, [r0, #16]
 3629              		.loc 1 1366 3 is_stmt 1 view .LVU1257
 3630              		.loc 1 1366 28 is_stmt 0 view .LVU1258
 3631 0014 0369     		ldr	r3, [r0, #16]
 3632 0016 43F40023 		orr	r3, r3, #524288
 3633 001a 0361     		str	r3, [r0, #16]
 3634              		.loc 1 1367 3 is_stmt 1 view .LVU1259
 3635              		.loc 1 1367 28 is_stmt 0 view .LVU1260
 3636 001c 0369     		ldr	r3, [r0, #16]
 3637 001e 43F01803 		orr	r3, r3, #24
 3638 0022 0361     		str	r3, [r0, #16]
 3639              		.loc 1 1368 3 is_stmt 1 view .LVU1261
 3640              		.loc 1 1368 28 is_stmt 0 view .LVU1262
 3641 0024 0369     		ldr	r3, [r0, #16]
 3642 0026 43F0C043 		orr	r3, r3, #1610612736
 3643 002a 0361     		str	r3, [r0, #16]
 3644              		.loc 1 1370 3 is_stmt 1 view .LVU1263
 3645              		.loc 1 1370 6 is_stmt 0 view .LVU1264
 3646 002c 04D1     		bne	.L286
 3647              		.loc 1 1372 5 is_stmt 1 view .LVU1265
 3648              		.loc 1 1372 29 is_stmt 0 view .LVU1266
ARM GAS  C:\Users\DEVELO~1\AppData\Local\Temp\cc15HDCU.s 			page 65


 3649 002e 4261     		str	r2, [r0, #20]
 3650              		.loc 1 1374 5 is_stmt 1 view .LVU1267
 3651              		.loc 1 1374 29 is_stmt 0 view .LVU1268
 3652 0030 0368     		ldr	r3, [r0]
 3653 0032 43F08023 		orr	r3, r3, #-2147450880
 3654 0036 0360     		str	r3, [r0]
 3655              	.L286:
 3656              		.loc 1 1378 1 view .LVU1269
 3657 0038 0020     		movs	r0, #0
 3658 003a 10BC     		pop	{r4}
 3659              		.cfi_remember_state
 3660              		.cfi_restore 4
 3661              		.cfi_def_cfa_offset 0
 3662              	.LVL293:
 3663              		.loc 1 1378 1 view .LVU1270
 3664 003c 7047     		bx	lr
 3665              	.LVL294:
 3666              	.L284:
 3667              		.cfi_restore_state
 3668              		.loc 1 1359 5 is_stmt 1 view .LVU1271
 3669              		.loc 1 1359 24 is_stmt 0 view .LVU1272
 3670 003e D0F8003B 		ldr	r3, [r0, #2816]
 3671              		.loc 1 1359 10 view .LVU1273
 3672 0042 00F53060 		add	r0, r0, #2816
 3673              	.LVL295:
 3674              		.loc 1 1359 8 view .LVU1274
 3675 0046 002B     		cmp	r3, #0
 3676 0048 E1DA     		bge	.L285
 3677              		.loc 1 1378 1 view .LVU1275
 3678 004a 0020     		movs	r0, #0
 3679              	.LVL296:
 3680              		.loc 1 1378 1 view .LVU1276
 3681 004c 10BC     		pop	{r4}
 3682              		.cfi_restore 4
 3683              		.cfi_def_cfa_offset 0
 3684              	.LVL297:
 3685              		.loc 1 1378 1 view .LVU1277
 3686 004e 7047     		bx	lr
 3687              	.L291:
 3688              		.align	2
 3689              	.L290:
 3690 0050 0A30544F 		.word	1330917386
 3691              		.cfi_endproc
 3692              	.LFE174:
 3693              		.size	USB_EP0_OutStart, .-USB_EP0_OutStart
 3694              		.section	.text.USB_HostInit,"ax",%progbits
 3695              		.align	1
 3696              		.p2align 4,,15
 3697              		.global	USB_HostInit
 3698              		.syntax unified
 3699              		.thumb
 3700              		.thumb_func
 3701              		.type	USB_HostInit, %function
 3702              	USB_HostInit:
 3703              	.LVL298:
 3704              	.LFB176:
 3705              		.loc 1 1426 1 is_stmt 1 view -0
ARM GAS  C:\Users\DEVELO~1\AppData\Local\Temp\cc15HDCU.s 			page 66


 3706              		.cfi_startproc
 3707              		@ args = 20, pretend = 16, frame = 0
 3708              		@ frame_needed = 0, uses_anonymous_args = 0
 3709              		.loc 1 1426 1 is_stmt 0 view .LVU1279
 3710 0000 84B0     		sub	sp, sp, #16
 3711              		.cfi_def_cfa_offset 16
 3712 0002 70B5     		push	{r4, r5, r6, lr}
 3713              		.cfi_def_cfa_offset 32
 3714              		.cfi_offset 4, -32
 3715              		.cfi_offset 5, -28
 3716              		.cfi_offset 6, -24
 3717              		.cfi_offset 14, -20
 3718              		.loc 1 1426 1 view .LVU1280
 3719 0004 05AD     		add	r5, sp, #20
 3720 0006 0446     		mov	r4, r0
 3721 0008 85E80E00 		stm	r5, {r1, r2, r3}
 3722              		.loc 1 1432 16 view .LVU1281
 3723 000c 0023     		movs	r3, #0
 3724 000e 9DF81550 		ldrb	r5, [sp, #21]	@ zero_extendqisi2
 3725              	.LVL299:
 3726              		.loc 1 1427 3 is_stmt 1 view .LVU1282
 3727              		.loc 1 1428 3 view .LVU1283
 3728              		.loc 1 1429 3 view .LVU1284
 3729              		.loc 1 1432 3 view .LVU1285
 3730              		.loc 1 1432 16 is_stmt 0 view .LVU1286
 3731 0012 C0F8003E 		str	r3, [r0, #3584]
 3732              		.loc 1 1435 3 is_stmt 1 view .LVU1287
 3733              		.loc 1 1435 15 is_stmt 0 view .LVU1288
 3734 0016 836B     		ldr	r3, [r0, #56]
 3735 0018 23F40013 		bic	r3, r3, #2097152
 3736 001c 8363     		str	r3, [r0, #56]
 3737              		.loc 1 1438 3 is_stmt 1 view .LVU1289
 3738              		.loc 1 1438 15 is_stmt 0 view .LVU1290
 3739 001e 836B     		ldr	r3, [r0, #56]
 3740 0020 23F40033 		bic	r3, r3, #131072
 3741 0024 8363     		str	r3, [r0, #56]
 3742              		.loc 1 1441 3 is_stmt 1 view .LVU1291
 3743              		.loc 1 1441 12 is_stmt 0 view .LVU1292
 3744 0026 C368     		ldr	r3, [r0, #12]
 3745              		.loc 1 1441 6 view .LVU1293
 3746 0028 5B06     		lsls	r3, r3, #25
 3747 002a 3FD4     		bmi	.L293
 3748              		.loc 1 1443 5 is_stmt 1 view .LVU1294
 3749              		.loc 1 1443 8 is_stmt 0 view .LVU1295
 3750 002c 9DF81730 		ldrb	r3, [sp, #23]	@ zero_extendqisi2
 3751 0030 012B     		cmp	r3, #1
 3752              		.loc 1 1446 23 view .LVU1296
 3753 0032 D0F80034 		ldr	r3, [r0, #1024]
 3754              		.loc 1 1443 8 view .LVU1297
 3755 0036 3CD0     		beq	.L304
 3756              	.L303:
 3757              		.loc 1 1457 21 view .LVU1298
 3758 0038 23F00403 		bic	r3, r3, #4
 3759 003c C4F80034 		str	r3, [r4, #1024]
 3760              	.L295:
 3761              		.loc 1 1461 3 is_stmt 1 view .LVU1299
 3762              		.loc 1 1461 7 is_stmt 0 view .LVU1300
ARM GAS  C:\Users\DEVELO~1\AppData\Local\Temp\cc15HDCU.s 			page 67


 3763 0040 1021     		movs	r1, #16
 3764 0042 2046     		mov	r0, r4
 3765              	.LVL300:
 3766              		.loc 1 1461 7 view .LVU1301
 3767 0044 FFF7FEFF 		bl	USB_FlushTxFifo
 3768              	.LVL301:
 3769 0048 0146     		mov	r1, r0
 3770              		.loc 1 1466 7 view .LVU1302
 3771 004a 2046     		mov	r0, r4
 3772              	.LVL302:
 3773              		.loc 1 1466 3 is_stmt 1 view .LVU1303
 3774              		.loc 1 1466 7 is_stmt 0 view .LVU1304
 3775 004c FFF7FEFF 		bl	USB_FlushRxFifo
 3776              	.LVL303:
 3777              		.loc 1 1466 6 view .LVU1305
 3778 0050 0843     		orrs	r0, r0, r1
 3779 0052 C0B2     		uxtb	r0, r0
 3780              		.loc 1 1468 9 view .LVU1306
 3781 0054 0038     		subs	r0, r0, #0
 3782 0056 18BF     		it	ne
 3783 0058 0120     		movne	r0, #1
 3784              	.LVL304:
 3785              		.loc 1 1472 3 is_stmt 1 view .LVU1307
 3786              		.loc 1 1472 18 view .LVU1308
 3787 005a 5DB1     		cbz	r5, .L300
 3788              		.loc 1 1472 10 is_stmt 0 view .LVU1309
 3789 005c 0022     		movs	r2, #0
 3790 005e 04F5A063 		add	r3, r4, #1280
 3791              		.loc 1 1474 23 view .LVU1310
 3792 0062 4FF0FF36 		mov	r6, #-1
 3793              		.loc 1 1475 26 view .LVU1311
 3794 0066 1146     		mov	r1, r2
 3795              	.LVL305:
 3796              	.L299:
 3797              		.loc 1 1474 5 is_stmt 1 discriminator 3 view .LVU1312
 3798              		.loc 1 1472 40 is_stmt 0 discriminator 3 view .LVU1313
 3799 0068 0132     		adds	r2, r2, #1
 3800              	.LVL306:
 3801              		.loc 1 1474 23 discriminator 3 view .LVU1314
 3802 006a 9E60     		str	r6, [r3, #8]
 3803              		.loc 1 1475 5 is_stmt 1 discriminator 3 view .LVU1315
 3804              		.loc 1 1475 26 is_stmt 0 discriminator 3 view .LVU1316
 3805 006c D960     		str	r1, [r3, #12]
 3806              		.loc 1 1472 40 is_stmt 1 discriminator 3 view .LVU1317
 3807              	.LVL307:
 3808              		.loc 1 1472 18 discriminator 3 view .LVU1318
 3809 006e 2033     		adds	r3, r3, #32
 3810 0070 AA42     		cmp	r2, r5
 3811 0072 F9D1     		bne	.L299
 3812              	.LVL308:
 3813              	.L300:
 3814              		.loc 1 1479 3 view .LVU1319
 3815              		.loc 1 1479 17 is_stmt 0 view .LVU1320
 3816 0074 0022     		movs	r2, #0
 3817              		.loc 1 1482 17 view .LVU1321
 3818 0076 4FF0FF33 		mov	r3, #-1
 3819              		.loc 1 1484 18 view .LVU1322
ARM GAS  C:\Users\DEVELO~1\AppData\Local\Temp\cc15HDCU.s 			page 68


 3820 007a 4FF40071 		mov	r1, #512
 3821              		.loc 1 1479 17 view .LVU1323
 3822 007e A261     		str	r2, [r4, #24]
 3823              		.loc 1 1482 3 is_stmt 1 view .LVU1324
 3824              		.loc 1 1482 17 is_stmt 0 view .LVU1325
 3825 0080 6361     		str	r3, [r4, #20]
 3826              		.loc 1 1484 3 is_stmt 1 view .LVU1326
 3827              		.loc 1 1485 28 is_stmt 0 view .LVU1327
 3828 0082 0E4B     		ldr	r3, .L305
 3829              		.loc 1 1484 18 view .LVU1328
 3830 0084 6162     		str	r1, [r4, #36]
 3831              		.loc 1 1485 3 is_stmt 1 view .LVU1329
 3832              		.loc 1 1486 18 is_stmt 0 view .LVU1330
 3833 0086 0E4A     		ldr	r2, .L305+4
 3834              		.loc 1 1485 28 view .LVU1331
 3835 0088 A362     		str	r3, [r4, #40]
 3836              		.loc 1 1486 3 is_stmt 1 view .LVU1332
 3837              		.loc 1 1489 6 is_stmt 0 view .LVU1333
 3838 008a 9DF81630 		ldrb	r3, [sp, #22]	@ zero_extendqisi2
 3839              		.loc 1 1486 18 view .LVU1334
 3840 008e C4F80021 		str	r2, [r4, #256]
 3841              		.loc 1 1489 3 is_stmt 1 view .LVU1335
 3842              		.loc 1 1489 6 is_stmt 0 view .LVU1336
 3843 0092 1BB9     		cbnz	r3, .L298
 3844              		.loc 1 1491 5 is_stmt 1 view .LVU1337
 3845              		.loc 1 1491 19 is_stmt 0 view .LVU1338
 3846 0094 A369     		ldr	r3, [r4, #24]
 3847 0096 43F01003 		orr	r3, r3, #16
 3848 009a A361     		str	r3, [r4, #24]
 3849              	.L298:
 3850              		.loc 1 1495 3 is_stmt 1 view .LVU1339
 3851              		.loc 1 1495 17 is_stmt 0 view .LVU1340
 3852 009c A269     		ldr	r2, [r4, #24]
 3853 009e 094B     		ldr	r3, .L305+8
 3854 00a0 1343     		orrs	r3, r3, r2
 3855 00a2 A361     		str	r3, [r4, #24]
 3856              		.loc 1 1499 3 is_stmt 1 view .LVU1341
 3857              		.loc 1 1500 1 is_stmt 0 view .LVU1342
 3858 00a4 BDE87040 		pop	{r4, r5, r6, lr}
 3859              		.cfi_remember_state
 3860              		.cfi_restore 14
 3861              		.cfi_restore 6
 3862              		.cfi_restore 5
 3863              		.cfi_restore 4
 3864              		.cfi_def_cfa_offset 16
 3865              	.LVL309:
 3866              		.loc 1 1500 1 view .LVU1343
 3867 00a8 04B0     		add	sp, sp, #16
 3868              		.cfi_def_cfa_offset 0
 3869 00aa 7047     		bx	lr
 3870              	.LVL310:
 3871              	.L293:
 3872              		.cfi_restore_state
 3873              		.loc 1 1457 5 is_stmt 1 view .LVU1344
 3874              		.loc 1 1457 21 is_stmt 0 view .LVU1345
 3875 00ac D0F80034 		ldr	r3, [r0, #1024]
 3876 00b0 C2E7     		b	.L303
ARM GAS  C:\Users\DEVELO~1\AppData\Local\Temp\cc15HDCU.s 			page 69


 3877              	.L304:
 3878              		.loc 1 1446 7 is_stmt 1 view .LVU1346
 3879              		.loc 1 1446 23 is_stmt 0 view .LVU1347
 3880 00b2 43F00403 		orr	r3, r3, #4
 3881 00b6 C0F80034 		str	r3, [r0, #1024]
 3882 00ba C1E7     		b	.L295
 3883              	.L306:
 3884              		.align	2
 3885              	.L305:
 3886 00bc 00020001 		.word	16777728
 3887 00c0 0003E000 		.word	14680832
 3888 00c4 080020A3 		.word	-1558183928
 3889              		.cfi_endproc
 3890              	.LFE176:
 3891              		.size	USB_HostInit, .-USB_HostInit
 3892              		.section	.text.USB_InitFSLSPClkSel,"ax",%progbits
 3893              		.align	1
 3894              		.p2align 4,,15
 3895              		.global	USB_InitFSLSPClkSel
 3896              		.syntax unified
 3897              		.thumb
 3898              		.thumb_func
 3899              		.type	USB_InitFSLSPClkSel, %function
 3900              	USB_InitFSLSPClkSel:
 3901              	.LVL311:
 3902              	.LFB177:
 3903              		.loc 1 1513 1 is_stmt 1 view -0
 3904              		.cfi_startproc
 3905              		@ args = 0, pretend = 0, frame = 0
 3906              		@ frame_needed = 0, uses_anonymous_args = 0
 3907              		@ link register save eliminated.
 3908              		.loc 1 1514 3 view .LVU1349
 3909              		.loc 1 1516 3 view .LVU1350
 3910              		.loc 1 1516 19 is_stmt 0 view .LVU1351
 3911 0000 D0F80024 		ldr	r2, [r0, #1024]
 3912              		.loc 1 1517 37 view .LVU1352
 3913 0004 01F00303 		and	r3, r1, #3
 3914              		.loc 1 1519 6 view .LVU1353
 3915 0008 0129     		cmp	r1, #1
 3916              		.loc 1 1516 19 view .LVU1354
 3917 000a 00F5806C 		add	ip, r0, #1024
 3918 000e 22F00302 		bic	r2, r2, #3
 3919 0012 C0F80024 		str	r2, [r0, #1024]
 3920              		.loc 1 1517 3 is_stmt 1 view .LVU1355
 3921              		.loc 1 1517 19 is_stmt 0 view .LVU1356
 3922 0016 D0F80024 		ldr	r2, [r0, #1024]
 3923 001a 43EA0203 		orr	r3, r3, r2
 3924 001e C0F80034 		str	r3, [r0, #1024]
 3925              		.loc 1 1519 3 is_stmt 1 view .LVU1357
 3926              		.loc 1 1519 6 is_stmt 0 view .LVU1358
 3927 0022 09D0     		beq	.L311
 3928              		.loc 1 1523 8 is_stmt 1 view .LVU1359
 3929              		.loc 1 1523 11 is_stmt 0 view .LVU1360
 3930 0024 0229     		cmp	r1, #2
 3931 0026 05D1     		bne	.L310
 3932              		.loc 1 1525 5 is_stmt 1 view .LVU1361
 3933              		.loc 1 1525 21 is_stmt 0 view .LVU1362
ARM GAS  C:\Users\DEVELO~1\AppData\Local\Temp\cc15HDCU.s 			page 70


 3934 0028 41F27073 		movw	r3, #6000
 3935              		.loc 1 1532 10 view .LVU1363
 3936 002c 0020     		movs	r0, #0
 3937              	.LVL312:
 3938              		.loc 1 1525 21 view .LVU1364
 3939 002e CCF80430 		str	r3, [ip, #4]
 3940 0032 7047     		bx	lr
 3941              	.LVL313:
 3942              	.L310:
 3943              		.loc 1 1529 12 view .LVU1365
 3944 0034 0120     		movs	r0, #1
 3945              	.LVL314:
 3946              		.loc 1 1533 1 view .LVU1366
 3947 0036 7047     		bx	lr
 3948              	.LVL315:
 3949              	.L311:
 3950              		.loc 1 1521 5 is_stmt 1 view .LVU1367
 3951              		.loc 1 1521 21 is_stmt 0 view .LVU1368
 3952 0038 4BF68033 		movw	r3, #48000
 3953              		.loc 1 1532 10 view .LVU1369
 3954 003c 0020     		movs	r0, #0
 3955              	.LVL316:
 3956              		.loc 1 1521 21 view .LVU1370
 3957 003e CCF80430 		str	r3, [ip, #4]
 3958 0042 7047     		bx	lr
 3959              		.cfi_endproc
 3960              	.LFE177:
 3961              		.size	USB_InitFSLSPClkSel, .-USB_InitFSLSPClkSel
 3962              		.section	.text.USB_ResetPort,"ax",%progbits
 3963              		.align	1
 3964              		.p2align 4,,15
 3965              		.global	USB_ResetPort
 3966              		.syntax unified
 3967              		.thumb
 3968              		.thumb_func
 3969              		.type	USB_ResetPort, %function
 3970              	USB_ResetPort:
 3971              	.LVL317:
 3972              	.LFB178:
 3973              		.loc 1 1543 1 is_stmt 1 view -0
 3974              		.cfi_startproc
 3975              		@ args = 0, pretend = 0, frame = 8
 3976              		@ frame_needed = 0, uses_anonymous_args = 0
 3977              		.loc 1 1544 3 view .LVU1372
 3978              		.loc 1 1543 1 is_stmt 0 view .LVU1373
 3979 0000 30B5     		push	{r4, r5, lr}
 3980              		.cfi_def_cfa_offset 12
 3981              		.cfi_offset 4, -12
 3982              		.cfi_offset 5, -8
 3983              		.cfi_offset 14, -4
 3984 0002 0446     		mov	r4, r0
 3985 0004 83B0     		sub	sp, sp, #12
 3986              		.cfi_def_cfa_offset 24
 3987              		.loc 1 1546 17 view .LVU1374
 3988 0006 0025     		movs	r5, #0
 3989              		.loc 1 1554 3 view .LVU1375
 3990 0008 6420     		movs	r0, #100
ARM GAS  C:\Users\DEVELO~1\AppData\Local\Temp\cc15HDCU.s 			page 71


 3991              	.LVL318:
 3992              		.loc 1 1546 3 is_stmt 1 view .LVU1376
 3993              		.loc 1 1546 17 is_stmt 0 view .LVU1377
 3994 000a 0195     		str	r5, [sp, #4]
 3995              		.loc 1 1548 3 is_stmt 1 view .LVU1378
 3996              		.loc 1 1548 11 is_stmt 0 view .LVU1379
 3997 000c D4F84034 		ldr	r3, [r4, #1088]
 3998              		.loc 1 1548 9 view .LVU1380
 3999 0010 0193     		str	r3, [sp, #4]
 4000              		.loc 1 1550 3 is_stmt 1 view .LVU1381
 4001              		.loc 1 1550 9 is_stmt 0 view .LVU1382
 4002 0012 019B     		ldr	r3, [sp, #4]
 4003 0014 23F02E03 		bic	r3, r3, #46
 4004 0018 0193     		str	r3, [sp, #4]
 4005              		.loc 1 1553 3 is_stmt 1 view .LVU1383
 4006              		.loc 1 1553 35 is_stmt 0 view .LVU1384
 4007 001a 019B     		ldr	r3, [sp, #4]
 4008 001c 43F48073 		orr	r3, r3, #256
 4009              		.loc 1 1553 14 view .LVU1385
 4010 0020 C4F84034 		str	r3, [r4, #1088]
 4011              		.loc 1 1554 3 is_stmt 1 view .LVU1386
 4012 0024 FFF7FEFF 		bl	HAL_Delay
 4013              	.LVL319:
 4014              		.loc 1 1555 3 view .LVU1387
 4015              		.loc 1 1555 38 is_stmt 0 view .LVU1388
 4016 0028 019B     		ldr	r3, [sp, #4]
 4017              		.loc 1 1556 3 view .LVU1389
 4018 002a 0A20     		movs	r0, #10
 4019              		.loc 1 1555 38 view .LVU1390
 4020 002c 23F48073 		bic	r3, r3, #256
 4021              		.loc 1 1555 14 view .LVU1391
 4022 0030 C4F84034 		str	r3, [r4, #1088]
 4023              		.loc 1 1556 3 is_stmt 1 view .LVU1392
 4024 0034 FFF7FEFF 		bl	HAL_Delay
 4025              	.LVL320:
 4026              		.loc 1 1558 3 view .LVU1393
 4027              		.loc 1 1559 1 is_stmt 0 view .LVU1394
 4028 0038 2846     		mov	r0, r5
 4029 003a 03B0     		add	sp, sp, #12
 4030              		.cfi_def_cfa_offset 12
 4031              		@ sp needed
 4032 003c 30BD     		pop	{r4, r5, pc}
 4033              		.loc 1 1559 1 view .LVU1395
 4034              		.cfi_endproc
 4035              	.LFE178:
 4036              		.size	USB_ResetPort, .-USB_ResetPort
 4037 003e 00BF     		.section	.text.USB_DriveVbus,"ax",%progbits
 4038              		.align	1
 4039              		.p2align 4,,15
 4040              		.global	USB_DriveVbus
 4041              		.syntax unified
 4042              		.thumb
 4043              		.thumb_func
 4044              		.type	USB_DriveVbus, %function
 4045              	USB_DriveVbus:
 4046              	.LVL321:
 4047              	.LFB179:
ARM GAS  C:\Users\DEVELO~1\AppData\Local\Temp\cc15HDCU.s 			page 72


 4048              		.loc 1 1570 1 is_stmt 1 view -0
 4049              		.cfi_startproc
 4050              		@ args = 0, pretend = 0, frame = 8
 4051              		@ frame_needed = 0, uses_anonymous_args = 0
 4052              		@ link register save eliminated.
 4053              		.loc 1 1571 3 view .LVU1397
 4054              		.loc 1 1570 1 is_stmt 0 view .LVU1398
 4055 0000 82B0     		sub	sp, sp, #8
 4056              		.cfi_def_cfa_offset 8
 4057              		.loc 1 1572 17 view .LVU1399
 4058 0002 0023     		movs	r3, #0
 4059              	.LVL322:
 4060              		.loc 1 1572 3 is_stmt 1 view .LVU1400
 4061              		.loc 1 1572 17 is_stmt 0 view .LVU1401
 4062 0004 0193     		str	r3, [sp, #4]
 4063              		.loc 1 1574 3 is_stmt 1 view .LVU1402
 4064              		.loc 1 1574 11 is_stmt 0 view .LVU1403
 4065 0006 D0F84034 		ldr	r3, [r0, #1088]
 4066              		.loc 1 1574 9 view .LVU1404
 4067 000a 0193     		str	r3, [sp, #4]
 4068              		.loc 1 1576 3 is_stmt 1 view .LVU1405
 4069              		.loc 1 1576 9 is_stmt 0 view .LVU1406
 4070 000c 019B     		ldr	r3, [sp, #4]
 4071 000e 23F02E03 		bic	r3, r3, #46
 4072 0012 0193     		str	r3, [sp, #4]
 4073              		.loc 1 1579 3 is_stmt 1 view .LVU1407
 4074              		.loc 1 1579 15 is_stmt 0 view .LVU1408
 4075 0014 019B     		ldr	r3, [sp, #4]
 4076              		.loc 1 1579 43 view .LVU1409
 4077 0016 13F4805F 		tst	r3, #4096
 4078              		.loc 1 1581 37 view .LVU1410
 4079 001a 019B     		ldr	r3, [sp, #4]
 4080              		.loc 1 1579 43 view .LVU1411
 4081 001c 01D1     		bne	.L315
 4082 001e 0129     		cmp	r1, #1
 4083 0020 0DD0     		beq	.L330
 4084              	.L315:
 4085              		.loc 1 1583 3 is_stmt 1 view .LVU1412
 4086              		.loc 1 1583 58 is_stmt 0 view .LVU1413
 4087 0022 DB04     		lsls	r3, r3, #19
 4088 0024 00D5     		bpl	.L316
 4089 0026 11B1     		cbz	r1, .L331
 4090              	.L316:
 4091              		.loc 1 1587 3 is_stmt 1 view .LVU1414
 4092              		.loc 1 1588 1 is_stmt 0 view .LVU1415
 4093 0028 0020     		movs	r0, #0
 4094              	.LVL323:
 4095              		.loc 1 1588 1 view .LVU1416
 4096 002a 02B0     		add	sp, sp, #8
 4097              		.cfi_remember_state
 4098              		.cfi_def_cfa_offset 0
 4099              		@ sp needed
 4100 002c 7047     		bx	lr
 4101              	.LVL324:
 4102              	.L331:
 4103              		.cfi_restore_state
 4104              		.loc 1 1585 5 is_stmt 1 view .LVU1417
ARM GAS  C:\Users\DEVELO~1\AppData\Local\Temp\cc15HDCU.s 			page 73


 4105              		.loc 1 1585 40 is_stmt 0 view .LVU1418
 4106 002e 019B     		ldr	r3, [sp, #4]
 4107 0030 23F48053 		bic	r3, r3, #4096
 4108              		.loc 1 1585 16 view .LVU1419
 4109 0034 C0F84034 		str	r3, [r0, #1088]
 4110              		.loc 1 1587 3 is_stmt 1 view .LVU1420
 4111              		.loc 1 1588 1 is_stmt 0 view .LVU1421
 4112 0038 0020     		movs	r0, #0
 4113              	.LVL325:
 4114              		.loc 1 1588 1 view .LVU1422
 4115 003a 02B0     		add	sp, sp, #8
 4116              		.cfi_remember_state
 4117              		.cfi_def_cfa_offset 0
 4118              		@ sp needed
 4119 003c 7047     		bx	lr
 4120              	.LVL326:
 4121              	.L330:
 4122              		.cfi_restore_state
 4123              		.loc 1 1581 5 is_stmt 1 view .LVU1423
 4124              		.loc 1 1581 37 is_stmt 0 view .LVU1424
 4125 003e 43F48053 		orr	r3, r3, #4096
 4126              		.loc 1 1581 16 view .LVU1425
 4127 0042 C0F84034 		str	r3, [r0, #1088]
 4128              		.loc 1 1583 3 is_stmt 1 view .LVU1426
 4129              		.loc 1 1588 1 is_stmt 0 view .LVU1427
 4130 0046 0020     		movs	r0, #0
 4131              	.LVL327:
 4132              		.loc 1 1583 15 view .LVU1428
 4133 0048 019B     		ldr	r3, [sp, #4]
 4134              		.loc 1 1587 3 is_stmt 1 view .LVU1429
 4135              		.loc 1 1588 1 is_stmt 0 view .LVU1430
 4136 004a 02B0     		add	sp, sp, #8
 4137              		.cfi_def_cfa_offset 0
 4138              		@ sp needed
 4139 004c 7047     		bx	lr
 4140              		.cfi_endproc
 4141              	.LFE179:
 4142              		.size	USB_DriveVbus, .-USB_DriveVbus
 4143 004e 00BF     		.section	.text.USB_GetHostSpeed,"ax",%progbits
 4144              		.align	1
 4145              		.p2align 4,,15
 4146              		.global	USB_GetHostSpeed
 4147              		.syntax unified
 4148              		.thumb
 4149              		.thumb_func
 4150              		.type	USB_GetHostSpeed, %function
 4151              	USB_GetHostSpeed:
 4152              	.LVL328:
 4153              	.LFB180:
 4154              		.loc 1 1600 1 is_stmt 1 view -0
 4155              		.cfi_startproc
 4156              		@ args = 0, pretend = 0, frame = 8
 4157              		@ frame_needed = 0, uses_anonymous_args = 0
 4158              		@ link register save eliminated.
 4159              		.loc 1 1601 3 view .LVU1432
 4160              		.loc 1 1600 1 is_stmt 0 view .LVU1433
 4161 0000 82B0     		sub	sp, sp, #8
ARM GAS  C:\Users\DEVELO~1\AppData\Local\Temp\cc15HDCU.s 			page 74


 4162              		.cfi_def_cfa_offset 8
 4163              		.loc 1 1602 17 view .LVU1434
 4164 0002 0023     		movs	r3, #0
 4165              	.LVL329:
 4166              		.loc 1 1602 3 is_stmt 1 view .LVU1435
 4167              		.loc 1 1602 17 is_stmt 0 view .LVU1436
 4168 0004 0193     		str	r3, [sp, #4]
 4169              		.loc 1 1604 3 is_stmt 1 view .LVU1437
 4170              		.loc 1 1604 11 is_stmt 0 view .LVU1438
 4171 0006 D0F84034 		ldr	r3, [r0, #1088]
 4172              		.loc 1 1604 9 view .LVU1439
 4173 000a 0193     		str	r3, [sp, #4]
 4174              		.loc 1 1605 3 is_stmt 1 view .LVU1440
 4175              		.loc 1 1605 39 is_stmt 0 view .LVU1441
 4176 000c 0198     		ldr	r0, [sp, #4]
 4177              	.LVL330:
 4178              		.loc 1 1606 1 view .LVU1442
 4179 000e C0F34140 		ubfx	r0, r0, #17, #2
 4180 0012 02B0     		add	sp, sp, #8
 4181              		.cfi_def_cfa_offset 0
 4182              		@ sp needed
 4183 0014 7047     		bx	lr
 4184              		.cfi_endproc
 4185              	.LFE180:
 4186              		.size	USB_GetHostSpeed, .-USB_GetHostSpeed
 4187 0016 00BF     		.section	.text.USB_GetCurrentFrame,"ax",%progbits
 4188              		.align	1
 4189              		.p2align 4,,15
 4190              		.global	USB_GetCurrentFrame
 4191              		.syntax unified
 4192              		.thumb
 4193              		.thumb_func
 4194              		.type	USB_GetCurrentFrame, %function
 4195              	USB_GetCurrentFrame:
 4196              	.LVL331:
 4197              	.LFB181:
 4198              		.loc 1 1614 1 is_stmt 1 view -0
 4199              		.cfi_startproc
 4200              		@ args = 0, pretend = 0, frame = 0
 4201              		@ frame_needed = 0, uses_anonymous_args = 0
 4202              		@ link register save eliminated.
 4203              		.loc 1 1615 3 view .LVU1444
 4204              		.loc 1 1617 3 view .LVU1445
 4205              		.loc 1 1617 20 is_stmt 0 view .LVU1446
 4206 0000 D0F80804 		ldr	r0, [r0, #1032]
 4207              	.LVL332:
 4208              		.loc 1 1618 1 view .LVU1447
 4209 0004 80B2     		uxth	r0, r0
 4210 0006 7047     		bx	lr
 4211              		.cfi_endproc
 4212              	.LFE181:
 4213              		.size	USB_GetCurrentFrame, .-USB_GetCurrentFrame
 4214              		.section	.text.USB_HC_Init,"ax",%progbits
 4215              		.align	1
 4216              		.p2align 4,,15
 4217              		.global	USB_HC_Init
 4218              		.syntax unified
ARM GAS  C:\Users\DEVELO~1\AppData\Local\Temp\cc15HDCU.s 			page 75


 4219              		.thumb
 4220              		.thumb_func
 4221              		.type	USB_HC_Init, %function
 4222              	USB_HC_Init:
 4223              	.LVL333:
 4224              	.LFB182:
 4225              		.loc 1 1647 1 is_stmt 1 view -0
 4226              		.cfi_startproc
 4227              		@ args = 12, pretend = 0, frame = 8
 4228              		@ frame_needed = 0, uses_anonymous_args = 0
 4229              		.loc 1 1648 3 view .LVU1449
 4230              		.loc 1 1649 3 view .LVU1450
 4231              		.loc 1 1647 1 is_stmt 0 view .LVU1451
 4232 0000 2DE9F043 		push	{r4, r5, r6, r7, r8, r9, lr}
 4233              		.cfi_def_cfa_offset 28
 4234              		.cfi_offset 4, -28
 4235              		.cfi_offset 5, -24
 4236              		.cfi_offset 6, -20
 4237              		.cfi_offset 7, -16
 4238              		.cfi_offset 8, -12
 4239              		.cfi_offset 9, -8
 4240              		.cfi_offset 14, -4
 4241 0004 83B0     		sub	sp, sp, #12
 4242              		.cfi_def_cfa_offset 40
 4243              		.loc 1 1655 3 view .LVU1452
 4244 0006 00EB411C 		add	ip, r0, r1, lsl #5
 4245              		.loc 1 1647 1 view .LVU1453
 4246 000a 9E46     		mov	lr, r3
 4247              		.loc 1 1655 36 view .LVU1454
 4248 000c 4FF0FF33 		mov	r3, #-1
 4249              	.LVL334:
 4250              		.loc 1 1647 1 view .LVU1455
 4251 0010 9DF82C40 		ldrb	r4, [sp, #44]	@ zero_extendqisi2
 4252 0014 0646     		mov	r6, r0
 4253              	.LVL335:
 4254              		.loc 1 1650 3 is_stmt 1 view .LVU1456
 4255              		.loc 1 1651 3 view .LVU1457
 4256              		.loc 1 1652 3 view .LVU1458
 4257              		.loc 1 1655 3 view .LVU1459
 4258              		.loc 1 1655 36 is_stmt 0 view .LVU1460
 4259 0016 CCF80835 		str	r3, [ip, #1288]
 4260              		.loc 1 1658 3 is_stmt 1 view .LVU1461
 4261              		.loc 1 1655 3 is_stmt 0 view .LVU1462
 4262 001a 0CF5A068 		add	r8, ip, #1280
 4263              		.loc 1 1647 1 view .LVU1463
 4264 001e 9DF82850 		ldrb	r5, [sp, #40]	@ zero_extendqisi2
 4265 0022 BDF83030 		ldrh	r3, [sp, #48]
 4266              		.loc 1 1658 3 view .LVU1464
 4267 0026 032C     		cmp	r4, #3
 4268 0028 00F28580 		bhi	.L336
 4269 002c DFE804F0 		tbb	[pc, r4]
 4270              	.LVL336:
 4271              	.L338:
 4272 0030 02       		.byte	(.L339-.L338)/2
 4273 0031 6A       		.byte	(.L340-.L338)/2
 4274 0032 02       		.byte	(.L339-.L338)/2
 4275 0033 13       		.byte	(.L337-.L338)/2
ARM GAS  C:\Users\DEVELO~1\AppData\Local\Temp\cc15HDCU.s 			page 76


 4276              		.p2align 1
 4277              	.L339:
 4278              		.loc 1 1662 7 is_stmt 1 view .LVU1465
 4279              		.loc 1 1669 27 is_stmt 0 view .LVU1466
 4280 0034 4FFA82F9 		sxtb	r9, r2
 4281              		.loc 1 1662 43 view .LVU1467
 4282 0038 40F29D40 		movw	r0, #1181
 4283              		.loc 1 1669 10 view .LVU1468
 4284 003c B9F1000F 		cmp	r9, #0
 4285              		.loc 1 1662 43 view .LVU1469
 4286 0040 C8F80C00 		str	r0, [r8, #12]
 4287              		.loc 1 1669 7 is_stmt 1 view .LVU1470
 4288              		.loc 1 1671 45 is_stmt 0 view .LVU1471
 4289 0044 D8F80C00 		ldr	r0, [r8, #12]
 4290              		.loc 1 1669 10 view .LVU1472
 4291 0048 6FDB     		blt	.L347
 4292              		.loc 1 1675 9 is_stmt 1 view .LVU1473
 4293              		.loc 1 1675 45 is_stmt 0 view .LVU1474
 4294 004a 40F06000 		orr	r0, r0, #96
 4295 004e C8F80C00 		str	r0, [r8, #12]
 4296              	.LVL337:
 4297              		.loc 1 1648 21 view .LVU1475
 4298 0052 0020     		movs	r0, #0
 4299 0054 09E0     		b	.L341
 4300              	.LVL338:
 4301              	.L337:
 4302              		.loc 1 1681 7 is_stmt 1 view .LVU1476
 4303              		.loc 1 1689 27 is_stmt 0 view .LVU1477
 4304 0056 4FFA82F9 		sxtb	r9, r2
 4305              		.loc 1 1681 43 view .LVU1478
 4306 005a 40F29D60 		movw	r0, #1693
 4307              		.loc 1 1689 10 view .LVU1479
 4308 005e B9F1000F 		cmp	r9, #0
 4309              		.loc 1 1681 43 view .LVU1480
 4310 0062 C8F80C00 		str	r0, [r8, #12]
 4311              		.loc 1 1689 7 is_stmt 1 view .LVU1481
 4312              		.loc 1 1689 10 is_stmt 0 view .LVU1482
 4313 0066 5EDB     		blt	.L348
 4314              	.L345:
 4315              		.loc 1 1648 21 view .LVU1483
 4316 0068 0020     		movs	r0, #0
 4317              	.LVL339:
 4318              	.L341:
 4319              		.loc 1 1714 3 is_stmt 1 view .LVU1484
 4320              		.loc 1 1726 6 is_stmt 0 view .LVU1485
 4321 006a 4FEAD979 		lsr	r9, r9, #31
 4322              		.loc 1 1750 54 view .LVU1486
 4323 006e C3F30A03 		ubfx	r3, r3, #0, #11
 4324              		.loc 1 1747 63 view .LVU1487
 4325 0072 4FEA8E5E 		lsl	lr, lr, #22
 4326              		.loc 1 1720 41 view .LVU1488
 4327 0076 01F00F07 		and	r7, r1, #15
 4328              		.loc 1 1751 73 view .LVU1489
 4329 007a 43EAC933 		orr	r3, r3, r9, lsl #15
 4330              		.loc 1 1747 70 view .LVU1490
 4331 007e 0EF0FE5E 		and	lr, lr, #532676608
 4332              		.loc 1 1748 67 view .LVU1491
ARM GAS  C:\Users\DEVELO~1\AppData\Local\Temp\cc15HDCU.s 			page 77


 4333 0082 D202     		lsls	r2, r2, #11
 4334              	.LVL340:
 4335              		.loc 1 1751 73 view .LVU1492
 4336 0084 43EA0E03 		orr	r3, r3, lr
 4337              		.loc 1 1714 37 view .LVU1493
 4338 0088 4FF0000E 		mov	lr, #0
 4339              		.loc 1 1748 74 view .LVU1494
 4340 008c 02F4F042 		and	r2, r2, #30720
 4341              		.loc 1 1714 37 view .LVU1495
 4342 0090 C8F804E0 		str	lr, [r8, #4]
 4343              		.loc 1 1717 3 is_stmt 1 view .LVU1496
 4344              		.loc 1 1717 39 is_stmt 0 view .LVU1497
 4345 0094 D8F80C10 		ldr	r1, [r8, #12]
 4346              	.LVL341:
 4347              		.loc 1 1717 39 view .LVU1498
 4348 0098 41F00201 		orr	r1, r1, #2
 4349 009c C8F80C10 		str	r1, [r8, #12]
 4350              		.loc 1 1720 3 is_stmt 1 view .LVU1499
 4351              		.loc 1 1720 30 is_stmt 0 view .LVU1500
 4352 00a0 0121     		movs	r1, #1
 4353 00a2 B940     		lsls	r1, r1, r7
 4354              		.loc 1 1720 23 view .LVU1501
 4355 00a4 D6F81874 		ldr	r7, [r6, #1048]
 4356 00a8 3943     		orrs	r1, r1, r7
 4357 00aa C6F81814 		str	r1, [r6, #1048]
 4358              		.loc 1 1723 3 is_stmt 1 view .LVU1502
 4359              		.loc 1 1723 17 is_stmt 0 view .LVU1503
 4360 00ae B169     		ldr	r1, [r6, #24]
 4361 00b0 41F00071 		orr	r1, r1, #33554432
 4362 00b4 B161     		str	r1, [r6, #24]
 4363              		.loc 1 1726 3 is_stmt 1 view .LVU1504
 4364              	.LVL342:
 4365              		.loc 1 1735 3 view .LVU1505
 4366              	.LBB40:
 4367              	.LBI40:
 4368              		.loc 1 1599 10 view .LVU1506
 4369              	.LBB41:
 4370              		.loc 1 1601 3 view .LVU1507
 4371              		.loc 1 1602 3 view .LVU1508
 4372              		.loc 1 1602 17 is_stmt 0 view .LVU1509
 4373 00b6 CDF804E0 		str	lr, [sp, #4]
 4374              		.loc 1 1604 3 is_stmt 1 view .LVU1510
 4375              		.loc 1 1604 11 is_stmt 0 view .LVU1511
 4376 00ba D6F84014 		ldr	r1, [r6, #1088]
 4377              		.loc 1 1604 9 view .LVU1512
 4378 00be 0191     		str	r1, [sp, #4]
 4379              		.loc 1 1605 3 is_stmt 1 view .LVU1513
 4380              		.loc 1 1605 39 is_stmt 0 view .LVU1514
 4381 00c0 0199     		ldr	r1, [sp, #4]
 4382              	.LVL343:
 4383              		.loc 1 1605 39 view .LVU1515
 4384              	.LBE41:
 4385              	.LBE40:
 4386              		.loc 1 1738 3 is_stmt 1 view .LVU1516
 4387              		.loc 1 1747 3 view .LVU1517
 4388              	.LBB43:
 4389              	.LBB42:
ARM GAS  C:\Users\DEVELO~1\AppData\Local\Temp\cc15HDCU.s 			page 78


 4390              		.loc 1 1605 39 is_stmt 0 view .LVU1518
 4391 00c2 C1F34141 		ubfx	r1, r1, #17, #2
 4392              	.LVL344:
 4393              		.loc 1 1605 39 view .LVU1519
 4394              	.LBE42:
 4395              	.LBE43:
 4396              		.loc 1 1738 6 view .LVU1520
 4397 00c6 0239     		subs	r1, r1, #2
 4398 00c8 18BF     		it	ne
 4399 00ca 0121     		movne	r1, #1
 4400 00cc 022D     		cmp	r5, #2
 4401 00ce 18BF     		it	ne
 4402 00d0 0021     		movne	r1, #0
 4403              		.loc 1 1751 73 view .LVU1521
 4404 00d2 43EA4143 		orr	r3, r3, r1, lsl #17
 4405              		.loc 1 1749 59 view .LVU1522
 4406 00d6 A104     		lsls	r1, r4, #18
 4407              		.loc 1 1751 73 view .LVU1523
 4408 00d8 1343     		orrs	r3, r3, r2
 4409              		.loc 1 1753 6 view .LVU1524
 4410 00da 04F0FD02 		and	r2, r4, #253
 4411              		.loc 1 1749 66 view .LVU1525
 4412 00de 01F44021 		and	r1, r1, #786432
 4413              		.loc 1 1753 6 view .LVU1526
 4414 00e2 012A     		cmp	r2, #1
 4415              		.loc 1 1751 73 view .LVU1527
 4416 00e4 43EA0103 		orr	r3, r3, r1
 4417 00e8 43F48013 		orr	r3, r3, #1048576
 4418              		.loc 1 1747 37 view .LVU1528
 4419 00ec CCF80035 		str	r3, [ip, #1280]
 4420              		.loc 1 1753 3 is_stmt 1 view .LVU1529
 4421              		.loc 1 1753 6 is_stmt 0 view .LVU1530
 4422 00f0 05D1     		bne	.L343
 4423              		.loc 1 1755 5 is_stmt 1 view .LVU1531
 4424              		.loc 1 1755 39 is_stmt 0 view .LVU1532
 4425 00f2 DCF80035 		ldr	r3, [ip, #1280]
 4426 00f6 43F00053 		orr	r3, r3, #536870912
 4427 00fa CCF80035 		str	r3, [ip, #1280]
 4428              	.L343:
 4429              		.loc 1 1758 3 is_stmt 1 view .LVU1533
 4430              		.loc 1 1759 1 is_stmt 0 view .LVU1534
 4431 00fe 03B0     		add	sp, sp, #12
 4432              		.cfi_remember_state
 4433              		.cfi_def_cfa_offset 28
 4434              		@ sp needed
 4435 0100 BDE8F083 		pop	{r4, r5, r6, r7, r8, r9, pc}
 4436              	.LVL345:
 4437              	.L340:
 4438              		.cfi_restore_state
 4439              		.loc 1 1697 7 is_stmt 1 view .LVU1535
 4440              		.loc 1 1702 27 is_stmt 0 view .LVU1536
 4441 0104 4FFA82F9 		sxtb	r9, r2
 4442              		.loc 1 1697 43 view .LVU1537
 4443 0108 40F22520 		movw	r0, #549
 4444              		.loc 1 1702 10 view .LVU1538
 4445 010c B9F1000F 		cmp	r9, #0
 4446              		.loc 1 1697 43 view .LVU1539
ARM GAS  C:\Users\DEVELO~1\AppData\Local\Temp\cc15HDCU.s 			page 79


 4447 0110 C8F80C00 		str	r0, [r8, #12]
 4448              		.loc 1 1702 7 is_stmt 1 view .LVU1540
 4449              		.loc 1 1702 10 is_stmt 0 view .LVU1541
 4450 0114 A8DA     		bge	.L345
 4451              		.loc 1 1704 9 is_stmt 1 view .LVU1542
 4452              		.loc 1 1704 45 is_stmt 0 view .LVU1543
 4453 0116 D8F80C00 		ldr	r0, [r8, #12]
 4454 011a 40F4C070 		orr	r0, r0, #384
 4455 011e C8F80C00 		str	r0, [r8, #12]
 4456              	.LVL346:
 4457              		.loc 1 1648 21 view .LVU1544
 4458 0122 0020     		movs	r0, #0
 4459 0124 A1E7     		b	.L341
 4460              	.LVL347:
 4461              	.L348:
 4462              		.loc 1 1691 9 is_stmt 1 view .LVU1545
 4463              		.loc 1 1691 45 is_stmt 0 view .LVU1546
 4464 0126 D8F80C00 		ldr	r0, [r8, #12]
 4465              	.L347:
 4466              		.loc 1 1691 45 view .LVU1547
 4467 012a 40F48070 		orr	r0, r0, #256
 4468 012e C8F80C00 		str	r0, [r8, #12]
 4469              	.LVL348:
 4470              		.loc 1 1648 21 view .LVU1548
 4471 0132 0020     		movs	r0, #0
 4472 0134 99E7     		b	.L341
 4473              	.LVL349:
 4474              	.L336:
 4475              		.loc 1 1669 27 view .LVU1549
 4476 0136 4FFA82F9 		sxtb	r9, r2
 4477              		.loc 1 1709 11 view .LVU1550
 4478 013a 0120     		movs	r0, #1
 4479 013c 95E7     		b	.L341
 4480              		.cfi_endproc
 4481              	.LFE182:
 4482              		.size	USB_HC_Init, .-USB_HC_Init
 4483 013e 00BF     		.section	.text.USB_HC_StartXfer,"ax",%progbits
 4484              		.align	1
 4485              		.p2align 4,,15
 4486              		.global	USB_HC_StartXfer
 4487              		.syntax unified
 4488              		.thumb
 4489              		.thumb_func
 4490              		.type	USB_HC_StartXfer, %function
 4491              	USB_HC_StartXfer:
 4492              	.LVL350:
 4493              	.LFB183:
 4494              		.loc 1 1772 1 is_stmt 1 view -0
 4495              		.cfi_startproc
 4496              		@ args = 0, pretend = 0, frame = 8
 4497              		@ frame_needed = 0, uses_anonymous_args = 0
 4498              		.loc 1 1773 3 view .LVU1552
 4499              		.loc 1 1774 3 view .LVU1553
 4500              		.loc 1 1782 6 is_stmt 0 view .LVU1554
 4501 0000 012A     		cmp	r2, #1
 4502              		.loc 1 1772 1 view .LVU1555
 4503 0002 F0B5     		push	{r4, r5, r6, r7, lr}
ARM GAS  C:\Users\DEVELO~1\AppData\Local\Temp\cc15HDCU.s 			page 80


 4504              		.cfi_def_cfa_offset 20
 4505              		.cfi_offset 4, -20
 4506              		.cfi_offset 5, -16
 4507              		.cfi_offset 6, -12
 4508              		.cfi_offset 7, -8
 4509              		.cfi_offset 14, -4
 4510 0004 83B0     		sub	sp, sp, #12
 4511              		.cfi_def_cfa_offset 32
 4512              		.loc 1 1774 33 view .LVU1556
 4513 0006 91F801C0 		ldrb	ip, [r1, #1]	@ zero_extendqisi2
 4514              	.LVL351:
 4515              		.loc 1 1775 3 is_stmt 1 view .LVU1557
 4516              		.loc 1 1776 3 view .LVU1558
 4517              		.loc 1 1777 3 view .LVU1559
 4518              		.loc 1 1778 3 view .LVU1560
 4519              		.loc 1 1779 3 view .LVU1561
 4520              		.loc 1 1782 3 view .LVU1562
 4521              		.loc 1 1782 6 is_stmt 0 view .LVU1563
 4522 000a 00F0A580 		beq	.L424
 4523              		.loc 1 1794 5 is_stmt 1 view .LVU1564
 4524              		.loc 1 1794 8 is_stmt 0 view .LVU1565
 4525 000e 8B88     		ldrh	r3, [r1, #4]
 4526 0010 B3F5807F 		cmp	r3, #256
 4527 0014 00F0E680 		beq	.L353
 4528              		.loc 1 1787 43 view .LVU1566
 4529 0018 00EB4C13 		add	r3, r0, ip, lsl #5
 4530 001c 03F5A063 		add	r3, r3, #1280
 4531              	.L352:
 4532              		.loc 1 1801 3 is_stmt 1 view .LVU1567
 4533              		.loc 1 1801 9 is_stmt 0 view .LVU1568
 4534 0020 8E79     		ldrb	r6, [r1, #6]	@ zero_extendqisi2
 4535              		.loc 1 1801 6 view .LVU1569
 4536 0022 012E     		cmp	r6, #1
 4537 0024 00F0A980 		beq	.L425
 4538              	.L355:
 4539              		.loc 1 1859 5 is_stmt 1 view .LVU1570
 4540              		.loc 1 1859 11 is_stmt 0 view .LVU1571
 4541 0028 0C6A     		ldr	r4, [r1, #32]
 4542              		.loc 1 1859 8 view .LVU1572
 4543 002a 002C     		cmp	r4, #0
 4544 002c 42D1     		bne	.L426
 4545              		.loc 1 1878 5 is_stmt 1 view .LVU1573
 4546              		.loc 1 1878 11 is_stmt 0 view .LVU1574
 4547 002e CD78     		ldrb	r5, [r1, #3]	@ zero_extendqisi2
 4548 0030 4FF4002E 		mov	lr, #524288
 4549 0034 0127     		movs	r7, #1
 4550              		.loc 1 1878 8 view .LVU1575
 4551 0036 002D     		cmp	r5, #0
 4552 0038 4CD0     		beq	.L366
 4553              	.L428:
 4554              		.loc 1 1880 7 is_stmt 1 view .LVU1576
 4555              		.loc 1 1880 48 is_stmt 0 view .LVU1577
 4556 003a 8C8A     		ldrh	r4, [r1, #20]
 4557              		.loc 1 1880 44 view .LVU1578
 4558 003c 07FB04F4 		mul	r4, r7, r4
 4559              		.loc 1 1880 20 view .LVU1579
 4560 0040 CC61     		str	r4, [r1, #28]
ARM GAS  C:\Users\DEVELO~1\AppData\Local\Temp\cc15HDCU.s 			page 81


 4561              		.loc 1 1889 43 view .LVU1580
 4562 0042 C4F31204 		ubfx	r4, r4, #0, #19
 4563              	.L357:
 4564              		.loc 1 1889 3 is_stmt 1 view .LVU1581
 4565              		.loc 1 1890 85 is_stmt 0 view .LVU1582
 4566 0046 44EA0E0E 		orr	lr, r4, lr
 4567              		.loc 1 1891 31 view .LVU1583
 4568 004a 8C7D     		ldrb	r4, [r1, #22]	@ zero_extendqisi2
 4569              		.loc 1 1891 54 view .LVU1584
 4570 004c 6407     		lsls	r4, r4, #29
 4571              		.loc 1 1891 61 view .LVU1585
 4572 004e 04F0C044 		and	r4, r4, #1610612736
 4573              		.loc 1 1890 85 view .LVU1586
 4574 0052 44EA0E04 		orr	r4, r4, lr
 4575              		.loc 1 1889 27 view .LVU1587
 4576 0056 1C61     		str	r4, [r3, #16]
 4577              		.loc 1 1893 3 is_stmt 1 view .LVU1588
 4578              		.loc 1 1893 6 is_stmt 0 view .LVU1589
 4579 0058 0AB1     		cbz	r2, .L367
 4580              	.L364:
 4581              		.loc 1 1896 5 is_stmt 1 view .LVU1590
 4582              		.loc 1 1896 30 is_stmt 0 view .LVU1591
 4583 005a 8C69     		ldr	r4, [r1, #24]
 4584              		.loc 1 1896 28 view .LVU1592
 4585 005c 5C61     		str	r4, [r3, #20]
 4586              	.L367:
 4587              		.loc 1 1899 3 is_stmt 1 view .LVU1593
 4588              		.loc 1 1899 38 is_stmt 0 view .LVU1594
 4589 005e D0F80844 		ldr	r4, [r0, #1032]
 4590              	.LVL352:
 4591              		.loc 1 1900 3 is_stmt 1 view .LVU1595
 4592              		.loc 1 1903 6 is_stmt 0 view .LVU1596
 4593 0062 012E     		cmp	r6, #1
 4594              		.loc 1 1900 27 view .LVU1597
 4595 0064 1F68     		ldr	r7, [r3]
 4596              		.loc 1 1901 52 view .LVU1598
 4597 0066 6FEA0404 		mvn	r4, r4
 4598              	.LVL353:
 4599              		.loc 1 1900 27 view .LVU1599
 4600 006a 27F00057 		bic	r7, r7, #536870912
 4601              		.loc 1 1901 52 view .LVU1600
 4602 006e 4FEA4474 		lsl	r4, r4, #29
 4603              	.LVL354:
 4604              		.loc 1 1900 27 view .LVU1601
 4605 0072 1F60     		str	r7, [r3]
 4606              		.loc 1 1901 3 is_stmt 1 view .LVU1602
 4607              		.loc 1 1901 52 is_stmt 0 view .LVU1603
 4608 0074 04F00054 		and	r4, r4, #536870912
 4609              		.loc 1 1901 27 view .LVU1604
 4610 0078 1F68     		ldr	r7, [r3]
 4611 007a 44EA0704 		orr	r4, r4, r7
 4612              		.loc 1 1899 29 view .LVU1605
 4613 007e 00F58067 		add	r7, r0, #1024
 4614              		.loc 1 1901 27 view .LVU1606
 4615 0082 1C60     		str	r4, [r3]
 4616              		.loc 1 1903 3 is_stmt 1 view .LVU1607
 4617              		.loc 1 1903 6 is_stmt 0 view .LVU1608
ARM GAS  C:\Users\DEVELO~1\AppData\Local\Temp\cc15HDCU.s 			page 82


 4618 0084 2AD0     		beq	.L427
 4619              		.loc 1 1959 5 is_stmt 1 view .LVU1609
 4620              		.loc 1 1959 39 is_stmt 0 view .LVU1610
 4621 0086 0024     		movs	r4, #0
 4622 0088 5C60     		str	r4, [r3, #4]
 4623              	.L393:
 4624              		.loc 1 1963 3 is_stmt 1 view .LVU1611
 4625              		.loc 1 1963 27 is_stmt 0 view .LVU1612
 4626 008a 1C68     		ldr	r4, [r3]
 4627              		.loc 1 1963 10 view .LVU1613
 4628 008c 0194     		str	r4, [sp, #4]
 4629              		.loc 1 1964 3 is_stmt 1 view .LVU1614
 4630              		.loc 1 1964 10 is_stmt 0 view .LVU1615
 4631 008e 019C     		ldr	r4, [sp, #4]
 4632 0090 24F08044 		bic	r4, r4, #1073741824
 4633 0094 0194     		str	r4, [sp, #4]
 4634              		.loc 1 1967 3 is_stmt 1 view .LVU1616
 4635              		.loc 1 1967 6 is_stmt 0 view .LVU1617
 4636 0096 002D     		cmp	r5, #0
 4637 0098 45D0     		beq	.L382
 4638              	.LVL355:
 4639              	.L374:
 4640              		.loc 1 1969 5 is_stmt 1 view .LVU1618
 4641              		.loc 1 1969 12 is_stmt 0 view .LVU1619
 4642 009a 019A     		ldr	r2, [sp, #4]
 4643 009c 42F40042 		orr	r2, r2, #32768
 4644 00a0 0192     		str	r2, [sp, #4]
 4645              		.loc 1 1975 3 is_stmt 1 view .LVU1620
 4646              		.loc 1 1975 10 is_stmt 0 view .LVU1621
 4647 00a2 019A     		ldr	r2, [sp, #4]
 4648 00a4 42F00042 		orr	r2, r2, #-2147483648
 4649 00a8 0192     		str	r2, [sp, #4]
 4650              		.loc 1 1976 3 is_stmt 1 view .LVU1622
 4651              		.loc 1 1976 27 is_stmt 0 view .LVU1623
 4652 00aa 019A     		ldr	r2, [sp, #4]
 4653 00ac 1A60     		str	r2, [r3]
 4654              		.loc 1 1978 3 is_stmt 1 view .LVU1624
 4655              		.loc 1 1983 3 view .LVU1625
 4656              	.LVL356:
 4657              	.L412:
 4658              		.loc 1 2022 1 is_stmt 0 view .LVU1626
 4659 00ae 0020     		movs	r0, #0
 4660              	.LVL357:
 4661              		.loc 1 2022 1 view .LVU1627
 4662 00b0 03B0     		add	sp, sp, #12
 4663              		.cfi_remember_state
 4664              		.cfi_def_cfa_offset 20
 4665              		@ sp needed
 4666 00b2 F0BD     		pop	{r4, r5, r6, r7, pc}
 4667              	.LVL358:
 4668              	.L426:
 4669              		.cfi_restore_state
 4670              		.loc 1 1861 7 is_stmt 1 view .LVU1628
 4671              		.loc 1 1861 50 is_stmt 0 view .LVU1629
 4672 00b4 8D8A     		ldrh	r5, [r1, #20]
 4673              	.LVL359:
 4674              		.loc 1 1863 7 is_stmt 1 view .LVU1630
ARM GAS  C:\Users\DEVELO~1\AppData\Local\Temp\cc15HDCU.s 			page 83


 4675              		.loc 1 1861 63 is_stmt 0 view .LVU1631
 4676 00b6 671E     		subs	r7, r4, #1
 4677 00b8 2F44     		add	r7, r7, r5
 4678              		.loc 1 1861 69 view .LVU1632
 4679 00ba B7FBF5F7 		udiv	r7, r7, r5
 4680              		.loc 1 1880 22 view .LVU1633
 4681 00be BFB2     		uxth	r7, r7
 4682              		.loc 1 1878 11 view .LVU1634
 4683 00c0 CD78     		ldrb	r5, [r1, #3]	@ zero_extendqisi2
 4684              	.LVL360:
 4685              		.loc 1 1880 22 view .LVU1635
 4686 00c2 B7F5807F 		cmp	r7, #256
 4687 00c6 28BF     		it	cs
 4688 00c8 4FF48077 		movcs	r7, #256
 4689              		.loc 1 1890 53 view .LVU1636
 4690 00cc 4FEAC74E 		lsl	lr, r7, #19
 4691              	.LVL361:
 4692              		.loc 1 1878 5 is_stmt 1 view .LVU1637
 4693              		.loc 1 1878 8 is_stmt 0 view .LVU1638
 4694 00d0 002D     		cmp	r5, #0
 4695 00d2 B2D1     		bne	.L428
 4696              	.L366:
 4697              		.loc 1 1884 7 is_stmt 1 view .LVU1639
 4698              		.loc 1 1884 20 is_stmt 0 view .LVU1640
 4699 00d4 CC61     		str	r4, [r1, #28]
 4700              		.loc 1 1889 43 view .LVU1641
 4701 00d6 C4F31204 		ubfx	r4, r4, #0, #19
 4702 00da B4E7     		b	.L357
 4703              	.L427:
 4704              		.loc 1 1906 5 is_stmt 1 view .LVU1642
 4705              		.loc 1 1906 42 is_stmt 0 view .LVU1643
 4706 00dc 4E7C     		ldrb	r6, [r1, #17]	@ zero_extendqisi2
 4707              		.loc 1 1907 41 view .LVU1644
 4708 00de 0C7C     		ldrb	r4, [r1, #16]	@ zero_extendqisi2
 4709              		.loc 1 1906 96 view .LVU1645
 4710 00e0 44EAC614 		orr	r4, r4, r6, lsl #7
 4711              		.loc 1 1907 68 view .LVU1646
 4712 00e4 44F00044 		orr	r4, r4, #-2147483648
 4713              		.loc 1 1906 39 view .LVU1647
 4714 00e8 5C60     		str	r4, [r3, #4]
 4715              		.loc 1 1910 5 is_stmt 1 view .LVU1648
 4716              		.loc 1 1910 41 is_stmt 0 view .LVU1649
 4717 00ea DC68     		ldr	r4, [r3, #12]
 4718 00ec 44F06004 		orr	r4, r4, #96
 4719 00f0 DC60     		str	r4, [r3, #12]
 4720              		.loc 1 1913 5 is_stmt 1 view .LVU1650
 4721              		.loc 1 1913 8 is_stmt 0 view .LVU1651
 4722 00f2 CC79     		ldrb	r4, [r1, #7]	@ zero_extendqisi2
 4723 00f4 012C     		cmp	r4, #1
 4724 00f6 4FD1     		bne	.L369
 4725              		.loc 1 1913 31 discriminator 1 view .LVU1652
 4726 00f8 002D     		cmp	r5, #0
 4727 00fa 5FD1     		bne	.L370
 4728              		.loc 1 1915 7 is_stmt 1 view .LVU1653
 4729              		.loc 1 1915 41 is_stmt 0 view .LVU1654
 4730 00fc 5C68     		ldr	r4, [r3, #4]
 4731 00fe 44F48034 		orr	r4, r4, #65536
ARM GAS  C:\Users\DEVELO~1\AppData\Local\Temp\cc15HDCU.s 			page 84


 4732 0102 5C60     		str	r4, [r3, #4]
 4733              		.loc 1 1916 7 is_stmt 1 view .LVU1655
 4734              		.loc 1 1916 43 is_stmt 0 view .LVU1656
 4735 0104 DC68     		ldr	r4, [r3, #12]
 4736 0106 44F04004 		orr	r4, r4, #64
 4737 010a DC60     		str	r4, [r3, #12]
 4738              		.loc 1 1919 5 is_stmt 1 view .LVU1657
 4739              		.loc 1 1919 13 is_stmt 0 view .LVU1658
 4740 010c 8C7C     		ldrb	r4, [r1, #18]	@ zero_extendqisi2
 4741              		.loc 1 1919 8 view .LVU1659
 4742 010e 04F0FD06 		and	r6, r4, #253
 4743 0112 012E     		cmp	r6, #1
 4744 0114 B9D1     		bne	.L393
 4745              		.loc 1 1926 5 is_stmt 1 view .LVU1660
 4746              		.loc 1 1926 8 is_stmt 0 view .LVU1661
 4747 0116 012C     		cmp	r4, #1
 4748 0118 43D0     		beq	.L375
 4749              	.L421:
 4750              		.loc 1 1926 5 is_stmt 1 view .LVU1662
 4751              		.loc 1 1963 3 view .LVU1663
 4752              		.loc 1 1963 27 is_stmt 0 view .LVU1664
 4753 011a 1C68     		ldr	r4, [r3]
 4754              		.loc 1 1963 10 view .LVU1665
 4755 011c 0194     		str	r4, [sp, #4]
 4756              		.loc 1 1964 3 is_stmt 1 view .LVU1666
 4757              		.loc 1 1964 10 is_stmt 0 view .LVU1667
 4758 011e 019C     		ldr	r4, [sp, #4]
 4759 0120 24F08044 		bic	r4, r4, #1073741824
 4760 0124 0194     		str	r4, [sp, #4]
 4761              		.loc 1 1967 3 is_stmt 1 view .LVU1668
 4762              	.L382:
 4763              		.loc 1 1973 5 view .LVU1669
 4764              		.loc 1 1973 12 is_stmt 0 view .LVU1670
 4765 0126 019C     		ldr	r4, [sp, #4]
 4766 0128 24F40044 		bic	r4, r4, #32768
 4767 012c 0194     		str	r4, [sp, #4]
 4768              		.loc 1 1975 3 is_stmt 1 view .LVU1671
 4769              		.loc 1 1975 10 is_stmt 0 view .LVU1672
 4770 012e 019C     		ldr	r4, [sp, #4]
 4771 0130 44F00044 		orr	r4, r4, #-2147483648
 4772 0134 0194     		str	r4, [sp, #4]
 4773              		.loc 1 1976 3 is_stmt 1 view .LVU1673
 4774              		.loc 1 1976 27 is_stmt 0 view .LVU1674
 4775 0136 019C     		ldr	r4, [sp, #4]
 4776 0138 1C60     		str	r4, [r3]
 4777              		.loc 1 1978 3 is_stmt 1 view .LVU1675
 4778              		.loc 1 1978 6 is_stmt 0 view .LVU1676
 4779 013a 002A     		cmp	r2, #0
 4780 013c B7D1     		bne	.L412
 4781              		.loc 1 1983 34 discriminator 1 view .LVU1677
 4782 013e 0A6A     		ldr	r2, [r1, #32]
 4783              	.LVL362:
 4784              		.loc 1 1983 28 discriminator 1 view .LVU1678
 4785 0140 002A     		cmp	r2, #0
 4786 0142 B4D0     		beq	.L412
 4787              		.loc 1 1983 51 discriminator 2 view .LVU1679
 4788 0144 CB79     		ldrb	r3, [r1, #7]	@ zero_extendqisi2
ARM GAS  C:\Users\DEVELO~1\AppData\Local\Temp\cc15HDCU.s 			page 85


 4789 0146 002B     		cmp	r3, #0
 4790 0148 B1D1     		bne	.L412
 4791              		.loc 1 1985 5 is_stmt 1 view .LVU1680
 4792 014a 8B7C     		ldrb	r3, [r1, #18]	@ zero_extendqisi2
 4793 014c 032B     		cmp	r3, #3
 4794 014e 64D8     		bhi	.L385
 4795 0150 DFE803F0 		tbb	[pc, r3]
 4796              	.L387:
 4797 0154 58       		.byte	(.L388-.L387)/2
 4798 0155 76       		.byte	(.L386-.L387)/2
 4799 0156 58       		.byte	(.L388-.L387)/2
 4800 0157 76       		.byte	(.L386-.L387)/2
 4801              	.LVL363:
 4802              		.p2align 1
 4803              	.L424:
 4804              		.loc 1 1784 5 view .LVU1681
 4805              		.loc 1 1784 39 is_stmt 0 view .LVU1682
 4806 0158 8B7C     		ldrb	r3, [r1, #18]	@ zero_extendqisi2
 4807              		.loc 1 1784 8 view .LVU1683
 4808 015a 13F0FD0F 		tst	r3, #253
 4809              		.loc 1 1787 43 view .LVU1684
 4810 015e 00EB4C13 		add	r3, r0, ip, lsl #5
 4811 0162 03F5A063 		add	r3, r3, #1280
 4812              		.loc 1 1784 8 view .LVU1685
 4813 0166 7FF45BAF 		bne	.L352
 4814              		.loc 1 1787 7 is_stmt 1 view .LVU1686
 4815              		.loc 1 1787 43 is_stmt 0 view .LVU1687
 4816 016a DC68     		ldr	r4, [r3, #12]
 4817 016c 24F07004 		bic	r4, r4, #112
 4818 0170 DC60     		str	r4, [r3, #12]
 4819              		.loc 1 1801 3 is_stmt 1 view .LVU1688
 4820              		.loc 1 1801 9 is_stmt 0 view .LVU1689
 4821 0172 8E79     		ldrb	r6, [r1, #6]	@ zero_extendqisi2
 4822              		.loc 1 1801 6 view .LVU1690
 4823 0174 012E     		cmp	r6, #1
 4824 0176 7FF457AF 		bne	.L355
 4825              	.L425:
 4826              		.loc 1 1804 5 is_stmt 1 view .LVU1691
 4827              	.LVL364:
 4828              		.loc 1 1806 5 view .LVU1692
 4829              		.loc 1 1806 11 is_stmt 0 view .LVU1693
 4830 017a CD78     		ldrb	r5, [r1, #3]	@ zero_extendqisi2
 4831              		.loc 1 1806 8 view .LVU1694
 4832 017c CDB9     		cbnz	r5, .L429
 4833              		.loc 1 1812 7 is_stmt 1 view .LVU1695
 4834              		.loc 1 1812 10 is_stmt 0 view .LVU1696
 4835 017e 8C7C     		ldrb	r4, [r1, #18]	@ zero_extendqisi2
 4836 0180 012C     		cmp	r4, #1
 4837              		.loc 1 1814 15 view .LVU1697
 4838 0182 0C6A     		ldr	r4, [r1, #32]
 4839              		.loc 1 1812 10 view .LVU1698
 4840 0184 7CD0     		beq	.L430
 4841              		.loc 1 1845 9 is_stmt 1 view .LVU1699
 4842              		.loc 1 1845 12 is_stmt 0 view .LVU1700
 4843 0186 012A     		cmp	r2, #1
 4844 0188 00F08780 		beq	.L431
 4845              	.L363:
ARM GAS  C:\Users\DEVELO~1\AppData\Local\Temp\cc15HDCU.s 			page 86


 4846              		.loc 1 1851 11 is_stmt 1 view .LVU1701
 4847              		.loc 1 1851 24 is_stmt 0 view .LVU1702
 4848 018c CC61     		str	r4, [r1, #28]
 4849              		.loc 1 1889 43 view .LVU1703
 4850 018e 4FF4002E 		mov	lr, #524288
 4851 0192 C4F31204 		ubfx	r4, r4, #0, #19
 4852 0196 56E7     		b	.L357
 4853              	.LVL365:
 4854              	.L369:
 4855              		.loc 1 1919 5 is_stmt 1 view .LVU1704
 4856              		.loc 1 1926 5 view .LVU1705
 4857              		.loc 1 1926 8 is_stmt 0 view .LVU1706
 4858 0198 8C7C     		ldrb	r4, [r1, #18]	@ zero_extendqisi2
 4859 019a 012C     		cmp	r4, #1
 4860 019c 7FF475AF 		bne	.L393
 4861              		.loc 1 1926 39 discriminator 1 view .LVU1707
 4862 01a0 CDB9     		cbnz	r5, .L376
 4863              	.L375:
 4864              		.loc 1 1929 7 is_stmt 1 view .LVU1708
 4865 01a2 CC68     		ldr	r4, [r1, #12]
 4866 01a4 013C     		subs	r4, r4, #1
 4867 01a6 032C     		cmp	r4, #3
 4868 01a8 B7D8     		bhi	.L421
 4869 01aa DFE804F0 		tbb	[pc, r4]
 4870              	.L396:
 4871 01ae 64       		.byte	(.L377-.L396)/2
 4872 01af 5F       		.byte	(.L379-.L396)/2
 4873 01b0 5A       		.byte	(.L380-.L396)/2
 4874 01b1 55       		.byte	(.L381-.L396)/2
 4875              	.LVL366:
 4876              		.p2align 1
 4877              	.L429:
 4878              		.loc 1 1808 7 view .LVU1709
 4879              		.loc 1 1808 48 is_stmt 0 view .LVU1710
 4880 01b2 8C8A     		ldrh	r4, [r1, #20]
 4881 01b4 4FF4002E 		mov	lr, #524288
 4882              		.loc 1 1808 20 view .LVU1711
 4883 01b8 CC61     		str	r4, [r1, #28]
 4884 01ba 44E7     		b	.L357
 4885              	.LVL367:
 4886              	.L370:
 4887              		.loc 1 1919 5 is_stmt 1 view .LVU1712
 4888              		.loc 1 1919 13 is_stmt 0 view .LVU1713
 4889 01bc 8C7C     		ldrb	r4, [r1, #18]	@ zero_extendqisi2
 4890              		.loc 1 1919 8 view .LVU1714
 4891 01be 04F0FD06 		and	r6, r4, #253
 4892 01c2 012E     		cmp	r6, #1
 4893 01c4 7FF461AF 		bne	.L393
 4894              		.loc 1 1920 31 view .LVU1715
 4895 01c8 012D     		cmp	r5, #1
 4896 01ca 40F08480 		bne	.L373
 4897              		.loc 1 1922 7 is_stmt 1 view .LVU1716
 4898              		.loc 1 1922 41 is_stmt 0 view .LVU1717
 4899 01ce 5A68     		ldr	r2, [r3, #4]
 4900              	.LVL368:
 4901              		.loc 1 1922 41 view .LVU1718
 4902 01d0 42F48032 		orr	r2, r2, #65536
ARM GAS  C:\Users\DEVELO~1\AppData\Local\Temp\cc15HDCU.s 			page 87


 4903 01d4 5A60     		str	r2, [r3, #4]
 4904              		.loc 1 1926 5 is_stmt 1 view .LVU1719
 4905              		.loc 1 1963 3 view .LVU1720
 4906              	.L376:
 4907              		.loc 1 1926 5 view .LVU1721
 4908              		.loc 1 1963 3 view .LVU1722
 4909              		.loc 1 1963 27 is_stmt 0 view .LVU1723
 4910 01d6 1A68     		ldr	r2, [r3]
 4911              		.loc 1 1963 10 view .LVU1724
 4912 01d8 0192     		str	r2, [sp, #4]
 4913              		.loc 1 1964 3 is_stmt 1 view .LVU1725
 4914              		.loc 1 1964 10 is_stmt 0 view .LVU1726
 4915 01da 019A     		ldr	r2, [sp, #4]
 4916 01dc 22F08042 		bic	r2, r2, #1073741824
 4917 01e0 0192     		str	r2, [sp, #4]
 4918              		.loc 1 1967 3 is_stmt 1 view .LVU1727
 4919 01e2 5AE7     		b	.L374
 4920              	.LVL369:
 4921              	.L353:
 4922              		.loc 1 1796 7 view .LVU1728
 4923              	.LBB44:
 4924              	.LBI44:
 4925              		.loc 1 2127 19 view .LVU1729
 4926              	.LBB45:
 4927              		.loc 1 2129 3 view .LVU1730
 4928              		.loc 1 2130 3 view .LVU1731
 4929              		.loc 1 2131 3 view .LVU1732
 4930              		.loc 1 2132 3 view .LVU1733
 4931              		.loc 1 2134 3 view .LVU1734
 4932 01e4 00EB4C1C 		add	ip, r0, ip, lsl #5
 4933              	.LVL370:
 4934              		.loc 1 2134 26 is_stmt 0 view .LVU1735
 4935 01e8 3D4B     		ldr	r3, .L433
 4936              	.LBE45:
 4937              	.LBE44:
 4938              		.loc 1 2022 1 view .LVU1736
 4939 01ea 0020     		movs	r0, #0
 4940              	.LVL371:
 4941              	.LBB47:
 4942              	.LBB46:
 4943              		.loc 1 2134 26 view .LVU1737
 4944 01ec CCF81035 		str	r3, [ip, #1296]
 4945              	.LVL372:
 4946              		.loc 1 2138 3 is_stmt 1 view .LVU1738
 4947              		.loc 1 2138 10 is_stmt 0 view .LVU1739
 4948 01f0 DCF80035 		ldr	r3, [ip, #1280]
 4949              	.LVL373:
 4950              		.loc 1 2139 3 is_stmt 1 view .LVU1740
 4951              		.loc 1 2139 10 is_stmt 0 view .LVU1741
 4952 01f4 23F08043 		bic	r3, r3, #1073741824
 4953              	.LVL374:
 4954              		.loc 1 2140 3 is_stmt 1 view .LVU1742
 4955              		.loc 1 2140 10 is_stmt 0 view .LVU1743
 4956 01f8 43F00043 		orr	r3, r3, #-2147483648
 4957              	.LVL375:
 4958              		.loc 1 2141 3 is_stmt 1 view .LVU1744
 4959              		.loc 1 2141 26 is_stmt 0 view .LVU1745
ARM GAS  C:\Users\DEVELO~1\AppData\Local\Temp\cc15HDCU.s 			page 88


 4960 01fc CCF80035 		str	r3, [ip, #1280]
 4961              		.loc 1 2143 3 is_stmt 1 view .LVU1746
 4962              	.LVL376:
 4963              		.loc 1 2143 3 is_stmt 0 view .LVU1747
 4964              	.LBE46:
 4965              	.LBE47:
 4966              		.loc 1 1797 7 is_stmt 1 view .LVU1748
 4967              		.loc 1 2022 1 is_stmt 0 view .LVU1749
 4968 0200 03B0     		add	sp, sp, #12
 4969              		.cfi_remember_state
 4970              		.cfi_def_cfa_offset 20
 4971              		@ sp needed
 4972 0202 F0BD     		pop	{r4, r5, r6, r7, pc}
 4973              	.LVL377:
 4974              	.L388:
 4975              		.cfi_restore_state
 4976              		.loc 1 1991 9 is_stmt 1 view .LVU1750
 4977              		.loc 1 1994 9 view .LVU1751
 4978              		.loc 1 1994 30 is_stmt 0 view .LVU1752
 4979 0204 C36A     		ldr	r3, [r0, #44]
 4980              		.loc 1 1991 46 view .LVU1753
 4981 0206 D41C     		adds	r4, r2, #3
 4982              		.loc 1 1994 41 view .LVU1754
 4983 0208 9BB2     		uxth	r3, r3
 4984              		.loc 1 1994 12 view .LVU1755
 4985 020a C4F38F04 		ubfx	r4, r4, #2, #16
 4986 020e 9C42     		cmp	r4, r3
 4987 0210 03D9     		bls	.L385
 4988              		.loc 1 1997 11 is_stmt 1 view .LVU1756
 4989              		.loc 1 1997 25 is_stmt 0 view .LVU1757
 4990 0212 8369     		ldr	r3, [r0, #24]
 4991 0214 43F02003 		orr	r3, r3, #32
 4992 0218 8361     		str	r3, [r0, #24]
 4993              	.LVL378:
 4994              	.L385:
 4995              		.loc 1 2018 5 is_stmt 1 view .LVU1758
 4996              	.LBB48:
 4997              	.LBB49:
 4998              		.loc 1 989 31 is_stmt 0 view .LVU1759
 4999 021a 92B2     		uxth	r2, r2
 5000              	.LBE49:
 5001              	.LBE48:
 5002              		.loc 1 2018 11 view .LVU1760
 5003 021c 8B69     		ldr	r3, [r1, #24]
 5004              	.LVL379:
 5005              	.LBB51:
 5006              	.LBI48:
 5007              		.loc 1 979 19 is_stmt 1 view .LVU1761
 5008              	.LBB50:
 5009              		.loc 1 982 3 view .LVU1762
 5010              		.loc 1 983 3 view .LVU1763
 5011              		.loc 1 984 3 view .LVU1764
 5012              		.loc 1 985 3 view .LVU1765
 5013              		.loc 1 987 3 view .LVU1766
 5014              		.loc 1 989 5 view .LVU1767
 5015              		.loc 1 989 31 is_stmt 0 view .LVU1768
 5016 021e 0332     		adds	r2, r2, #3
ARM GAS  C:\Users\DEVELO~1\AppData\Local\Temp\cc15HDCU.s 			page 89


 5017              	.LVL380:
 5018              		.loc 1 990 5 is_stmt 1 view .LVU1769
 5019              		.loc 1 990 20 view .LVU1770
 5020 0220 9208     		lsrs	r2, r2, #2
 5021              	.LVL381:
 5022              		.loc 1 990 20 is_stmt 0 view .LVU1771
 5023 0222 3FF444AF 		beq	.L412
 5024              		.loc 1 992 7 view .LVU1772
 5025 0226 00EB0C3C 		add	ip, r0, ip, lsl #12
 5026              	.LVL382:
 5027              		.loc 1 992 7 view .LVU1773
 5028 022a 03EB8202 		add	r2, r3, r2, lsl #2
 5029              	.LVL383:
 5030              		.loc 1 992 7 view .LVU1774
 5031 022e 0CF5805C 		add	ip, ip, #4096
 5032              	.LVL384:
 5033              	.L389:
 5034              		.loc 1 992 7 is_stmt 1 view .LVU1775
 5035              		.loc 1 992 41 is_stmt 0 view .LVU1776
 5036 0232 53F8041B 		ldr	r1, [r3], #4	@ unaligned
 5037              	.LVL385:
 5038              		.loc 1 990 20 view .LVU1777
 5039 0236 9A42     		cmp	r2, r3
 5040              		.loc 1 992 39 view .LVU1778
 5041 0238 CCF80010 		str	r1, [ip]
 5042              		.loc 1 993 7 is_stmt 1 view .LVU1779
 5043              	.LVL386:
 5044              		.loc 1 994 7 view .LVU1780
 5045              		.loc 1 995 7 view .LVU1781
 5046              		.loc 1 996 7 view .LVU1782
 5047              		.loc 1 990 33 view .LVU1783
 5048              		.loc 1 990 20 view .LVU1784
 5049 023c F9D1     		bne	.L389
 5050 023e 36E7     		b	.L412
 5051              	.LVL387:
 5052              	.L386:
 5053              		.loc 1 990 20 is_stmt 0 view .LVU1785
 5054              	.LBE50:
 5055              	.LBE51:
 5056              		.loc 1 2004 9 is_stmt 1 view .LVU1786
 5057              		.loc 1 2006 9 view .LVU1787
 5058              		.loc 1 2006 35 is_stmt 0 view .LVU1788
 5059 0240 3C69     		ldr	r4, [r7, #16]
 5060              		.loc 1 2004 46 view .LVU1789
 5061 0242 D31C     		adds	r3, r2, #3
 5062              		.loc 1 2006 45 view .LVU1790
 5063 0244 A4B2     		uxth	r4, r4
 5064              		.loc 1 2006 12 view .LVU1791
 5065 0246 C3F38F03 		ubfx	r3, r3, #2, #16
 5066 024a 9C42     		cmp	r4, r3
 5067 024c E5D2     		bcs	.L385
 5068              		.loc 1 2009 11 is_stmt 1 view .LVU1792
 5069              		.loc 1 2009 25 is_stmt 0 view .LVU1793
 5070 024e 8369     		ldr	r3, [r0, #24]
 5071 0250 43F08063 		orr	r3, r3, #67108864
 5072 0254 8361     		str	r3, [r0, #24]
 5073 0256 E0E7     		b	.L385
ARM GAS  C:\Users\DEVELO~1\AppData\Local\Temp\cc15HDCU.s 			page 90


 5074              	.LVL388:
 5075              	.L381:
 5076              		.loc 1 1948 11 is_stmt 1 view .LVU1794
 5077              		.loc 1 1948 45 is_stmt 0 view .LVU1795
 5078 0258 5C68     		ldr	r4, [r3, #4]
 5079 025a 44F44044 		orr	r4, r4, #49152
 5080 025e 5C60     		str	r4, [r3, #4]
 5081              		.loc 1 1949 11 is_stmt 1 view .LVU1796
 5082 0260 5BE7     		b	.L421
 5083              	.L380:
 5084              		.loc 1 1943 11 view .LVU1797
 5085              		.loc 1 1943 45 is_stmt 0 view .LVU1798
 5086 0262 5C68     		ldr	r4, [r3, #4]
 5087 0264 44F48044 		orr	r4, r4, #16384
 5088 0268 5C60     		str	r4, [r3, #4]
 5089              		.loc 1 1944 11 is_stmt 1 view .LVU1799
 5090 026a 56E7     		b	.L421
 5091              	.L379:
 5092              		.loc 1 1938 11 view .LVU1800
 5093              		.loc 1 1938 45 is_stmt 0 view .LVU1801
 5094 026c 5C68     		ldr	r4, [r3, #4]
 5095 026e 44F00E04 		orr	r4, r4, #14
 5096 0272 5C60     		str	r4, [r3, #4]
 5097              		.loc 1 1939 11 is_stmt 1 view .LVU1802
 5098 0274 51E7     		b	.L421
 5099              	.L377:
 5100              		.loc 1 1933 11 view .LVU1803
 5101              		.loc 1 1933 45 is_stmt 0 view .LVU1804
 5102 0276 5C68     		ldr	r4, [r3, #4]
 5103 0278 44F40044 		orr	r4, r4, #32768
 5104 027c 5C60     		str	r4, [r3, #4]
 5105              		.loc 1 1934 11 is_stmt 1 view .LVU1805
 5106 027e 4CE7     		b	.L421
 5107              	.LVL389:
 5108              	.L430:
 5109              		.loc 1 1814 9 view .LVU1806
 5110              		.loc 1 1814 12 is_stmt 0 view .LVU1807
 5111 0280 BC2C     		cmp	r4, #188
 5112 0282 18D9     		bls	.L359
 5113              		.loc 1 1817 11 is_stmt 1 view .LVU1808
 5114              		.loc 1 1820 54 is_stmt 0 view .LVU1809
 5115 0284 CC68     		ldr	r4, [r1, #12]
 5116 0286 671E     		subs	r7, r4, #1
 5117              		.loc 1 1817 28 view .LVU1810
 5118 0288 8C8A     		ldrh	r4, [r1, #20]
 5119              		.loc 1 1820 14 view .LVU1811
 5120 028a 012F     		cmp	r7, #1
 5121              		.loc 1 1818 24 view .LVU1812
 5122 028c C1E90744 		strd	r4, r4, [r1, #28]
 5123              		.loc 1 1820 11 is_stmt 1 view .LVU1813
 5124              		.loc 1 1820 14 is_stmt 0 view .LVU1814
 5125 0290 1CD9     		bls	.L432
 5126              		.loc 1 1826 13 is_stmt 1 view .LVU1815
 5127              		.loc 1 1826 34 is_stmt 0 view .LVU1816
 5128 0292 4FF4002E 		mov	lr, #524288
 5129 0296 CE60     		str	r6, [r1, #12]
 5130 0298 D5E6     		b	.L357
ARM GAS  C:\Users\DEVELO~1\AppData\Local\Temp\cc15HDCU.s 			page 91


 5131              	.L431:
 5132              		.loc 1 1845 42 discriminator 1 view .LVU1817
 5133 029a 8F8A     		ldrh	r7, [r1, #20]
 5134              		.loc 1 1845 25 discriminator 1 view .LVU1818
 5135 029c BC42     		cmp	r4, r7
 5136 029e 7FF675AF 		bls	.L363
 5137              		.loc 1 1847 11 is_stmt 1 view .LVU1819
 5138              		.loc 1 1891 31 is_stmt 0 view .LVU1820
 5139 02a2 8C7D     		ldrb	r4, [r1, #22]	@ zero_extendqisi2
 5140              		.loc 1 1847 24 view .LVU1821
 5141 02a4 CF61     		str	r7, [r1, #28]
 5142              	.LVL390:
 5143              		.loc 1 1889 3 is_stmt 1 view .LVU1822
 5144              		.loc 1 1890 85 is_stmt 0 view .LVU1823
 5145 02a6 47F40027 		orr	r7, r7, #524288
 5146              		.loc 1 1891 54 view .LVU1824
 5147 02aa 6407     		lsls	r4, r4, #29
 5148              		.loc 1 1891 61 view .LVU1825
 5149 02ac 04F0C044 		and	r4, r4, #1610612736
 5150              		.loc 1 1890 85 view .LVU1826
 5151 02b0 3C43     		orrs	r4, r4, r7
 5152              		.loc 1 1889 27 view .LVU1827
 5153 02b2 1C61     		str	r4, [r3, #16]
 5154              		.loc 1 1893 3 is_stmt 1 view .LVU1828
 5155 02b4 D1E6     		b	.L364
 5156              	.LVL391:
 5157              	.L359:
 5158              		.loc 1 1831 11 view .LVU1829
 5159              		.loc 1 1833 54 is_stmt 0 view .LVU1830
 5160 02b6 CF68     		ldr	r7, [r1, #12]
 5161              		.loc 1 1839 34 view .LVU1831
 5162 02b8 4FF4002E 		mov	lr, #524288
 5163              		.loc 1 1831 24 view .LVU1832
 5164 02bc CC61     		str	r4, [r1, #28]
 5165              		.loc 1 1833 11 is_stmt 1 view .LVU1833
 5166              		.loc 1 1833 54 is_stmt 0 view .LVU1834
 5167 02be 013F     		subs	r7, r7, #1
 5168              		.loc 1 1833 14 view .LVU1835
 5169 02c0 012F     		cmp	r7, #1
 5170              		.loc 1 1835 13 is_stmt 1 view .LVU1836
 5171              		.loc 1 1835 34 is_stmt 0 view .LVU1837
 5172 02c2 8CBF     		ite	hi
 5173 02c4 0427     		movhi	r7, #4
 5174              		.loc 1 1839 13 is_stmt 1 view .LVU1838
 5175              		.loc 1 1839 34 is_stmt 0 view .LVU1839
 5176 02c6 0327     		movls	r7, #3
 5177 02c8 CF60     		str	r7, [r1, #12]
 5178 02ca BCE6     		b	.L357
 5179              	.L432:
 5180              		.loc 1 1822 13 is_stmt 1 view .LVU1840
 5181              		.loc 1 1822 34 is_stmt 0 view .LVU1841
 5182 02cc 0227     		movs	r7, #2
 5183 02ce 4FF4002E 		mov	lr, #524288
 5184 02d2 CF60     		str	r7, [r1, #12]
 5185 02d4 B7E6     		b	.L357
 5186              	.LVL392:
 5187              	.L373:
ARM GAS  C:\Users\DEVELO~1\AppData\Local\Temp\cc15HDCU.s 			page 92


 5188              		.loc 1 1926 5 is_stmt 1 view .LVU1842
 5189              		.loc 1 1926 8 is_stmt 0 view .LVU1843
 5190 02d6 012C     		cmp	r4, #1
 5191 02d8 7FF4D7AE 		bne	.L393
 5192 02dc 7BE7     		b	.L376
 5193              	.L434:
 5194 02de 00BF     		.align	2
 5195              	.L433:
 5196 02e0 00000880 		.word	-2146959360
 5197              		.cfi_endproc
 5198              	.LFE183:
 5199              		.size	USB_HC_StartXfer, .-USB_HC_StartXfer
 5200              		.section	.text.USB_HC_ReadInterrupt,"ax",%progbits
 5201              		.align	1
 5202              		.p2align 4,,15
 5203              		.global	USB_HC_ReadInterrupt
 5204              		.syntax unified
 5205              		.thumb
 5206              		.thumb_func
 5207              		.type	USB_HC_ReadInterrupt, %function
 5208              	USB_HC_ReadInterrupt:
 5209              	.LVL393:
 5210              	.LFB184:
 5211              		.loc 1 2030 1 is_stmt 1 view -0
 5212              		.cfi_startproc
 5213              		@ args = 0, pretend = 0, frame = 0
 5214              		@ frame_needed = 0, uses_anonymous_args = 0
 5215              		@ link register save eliminated.
 5216              		.loc 1 2031 3 view .LVU1845
 5217              		.loc 1 2033 3 view .LVU1846
 5218              		.loc 1 2033 21 is_stmt 0 view .LVU1847
 5219 0000 D0F81404 		ldr	r0, [r0, #1044]
 5220              	.LVL394:
 5221              		.loc 1 2034 1 view .LVU1848
 5222 0004 80B2     		uxth	r0, r0
 5223 0006 7047     		bx	lr
 5224              		.cfi_endproc
 5225              	.LFE184:
 5226              		.size	USB_HC_ReadInterrupt, .-USB_HC_ReadInterrupt
 5227              		.section	.text.USB_HC_Halt,"ax",%progbits
 5228              		.align	1
 5229              		.p2align 4,,15
 5230              		.global	USB_HC_Halt
 5231              		.syntax unified
 5232              		.thumb
 5233              		.thumb_func
 5234              		.type	USB_HC_Halt, %function
 5235              	USB_HC_Halt:
 5236              	.LVL395:
 5237              	.LFB185:
 5238              		.loc 1 2044 1 is_stmt 1 view -0
 5239              		.cfi_startproc
 5240              		@ args = 0, pretend = 0, frame = 8
 5241              		@ frame_needed = 0, uses_anonymous_args = 0
 5242              		@ link register save eliminated.
 5243              		.loc 1 2045 3 view .LVU1850
 5244              		.loc 1 2048 24 is_stmt 0 view .LVU1851
ARM GAS  C:\Users\DEVELO~1\AppData\Local\Temp\cc15HDCU.s 			page 93


 5245 0000 00EB4111 		add	r1, r0, r1, lsl #5
 5246              	.LVL396:
 5247              		.loc 1 2047 17 view .LVU1852
 5248 0004 0023     		movs	r3, #0
 5249              	.LVL397:
 5250              		.loc 1 2046 3 is_stmt 1 view .LVU1853
 5251              		.loc 1 2047 3 view .LVU1854
 5252              		.loc 1 2044 1 is_stmt 0 view .LVU1855
 5253 0006 30B4     		push	{r4, r5}
 5254              		.cfi_def_cfa_offset 8
 5255              		.cfi_offset 4, -8
 5256              		.cfi_offset 5, -4
 5257              		.loc 1 2048 24 view .LVU1856
 5258 0008 01F5A06C 		add	ip, r1, #1280
 5259              		.loc 1 2044 1 view .LVU1857
 5260 000c 82B0     		sub	sp, sp, #8
 5261              		.cfi_def_cfa_offset 16
 5262              		.loc 1 2047 17 view .LVU1858
 5263 000e 0193     		str	r3, [sp, #4]
 5264              		.loc 1 2048 3 is_stmt 1 view .LVU1859
 5265              		.loc 1 2048 38 is_stmt 0 view .LVU1860
 5266 0010 D1F80035 		ldr	r3, [r1, #1280]
 5267              		.loc 1 2049 40 view .LVU1861
 5268 0014 D1F80055 		ldr	r5, [r1, #1280]
 5269              		.loc 1 2050 38 view .LVU1862
 5270 0018 DCF80440 		ldr	r4, [ip, #4]
 5271              		.loc 1 2048 71 view .LVU1863
 5272 001c 9B0C     		lsrs	r3, r3, #18
 5273              	.LVL398:
 5274              		.loc 1 2049 3 is_stmt 1 view .LVU1864
 5275              		.loc 1 2050 3 view .LVU1865
 5276              		.loc 1 2056 3 view .LVU1866
 5277              		.loc 1 2056 14 is_stmt 0 view .LVU1867
 5278 001e 8268     		ldr	r2, [r0, #8]
 5279              		.loc 1 2056 75 view .LVU1868
 5280 0020 9206     		lsls	r2, r2, #26
 5281 0022 01D5     		bpl	.L449
 5282 0024 002C     		cmp	r4, #0
 5283 0026 28DA     		bge	.L437
 5284              	.L449:
 5285              		.loc 1 2063 3 is_stmt 1 view .LVU1869
 5286              		.loc 1 2063 6 is_stmt 0 view .LVU1870
 5287 0028 DC07     		lsls	r4, r3, #31
 5288              	.LVL399:
 5289              		.loc 1 2063 6 view .LVU1871
 5290 002a 2AD5     		bpl	.L439
 5291              		.loc 1 2095 5 is_stmt 1 view .LVU1872
 5292              		.loc 1 2095 28 is_stmt 0 view .LVU1873
 5293 002c D1F80035 		ldr	r3, [r1, #1280]
 5294              	.LVL400:
 5295              		.loc 1 2095 28 view .LVU1874
 5296 0030 43F08043 		orr	r3, r3, #1073741824
 5297 0034 C1F80035 		str	r3, [r1, #1280]
 5298              		.loc 1 2097 5 is_stmt 1 view .LVU1875
 5299              		.loc 1 2097 19 is_stmt 0 view .LVU1876
 5300 0038 D0F81034 		ldr	r3, [r0, #1040]
 5301              		.loc 1 2097 8 view .LVU1877
ARM GAS  C:\Users\DEVELO~1\AppData\Local\Temp\cc15HDCU.s 			page 94


 5302 003c 13F47F0F 		tst	r3, #16711680
 5303              		.loc 1 2099 30 view .LVU1878
 5304 0040 D1F80035 		ldr	r3, [r1, #1280]
 5305              		.loc 1 2097 8 view .LVU1879
 5306 0044 43D1     		bne	.L447
 5307              		.loc 1 2099 7 is_stmt 1 view .LVU1880
 5308              		.loc 1 2099 30 is_stmt 0 view .LVU1881
 5309 0046 23F00043 		bic	r3, r3, #-2147483648
 5310 004a C1F80035 		str	r3, [r1, #1280]
 5311              		.loc 1 2100 7 is_stmt 1 view .LVU1882
 5312              		.loc 1 2100 30 is_stmt 0 view .LVU1883
 5313 004e D1F80035 		ldr	r3, [r1, #1280]
 5314 0052 43F00043 		orr	r3, r3, #-2147483648
 5315 0056 C1F80035 		str	r3, [r1, #1280]
 5316 005a 03E0     		b	.L448
 5317              	.L460:
 5318              		.loc 1 2109 31 view .LVU1884
 5319 005c DCF80030 		ldr	r3, [ip]
 5320              		.loc 1 2109 64 view .LVU1885
 5321 0060 002B     		cmp	r3, #0
 5322 0062 06DA     		bge	.L442
 5323              	.L448:
 5324              		.loc 1 2101 7 is_stmt 1 view .LVU1886
 5325              		.loc 1 2103 9 view .LVU1887
 5326              		.loc 1 2109 64 view .LVU1888
 5327              		.loc 1 2103 14 is_stmt 0 view .LVU1889
 5328 0064 019B     		ldr	r3, [sp, #4]
 5329 0066 0133     		adds	r3, r3, #1
 5330 0068 0193     		str	r3, [sp, #4]
 5331              		.loc 1 2105 9 is_stmt 1 view .LVU1890
 5332              		.loc 1 2105 19 is_stmt 0 view .LVU1891
 5333 006a 019B     		ldr	r3, [sp, #4]
 5334              		.loc 1 2105 12 view .LVU1892
 5335 006c B3F57A7F 		cmp	r3, #1000
 5336 0070 F4D9     		bls	.L460
 5337              	.L442:
 5338              		.loc 1 2118 1 view .LVU1893
 5339 0072 0020     		movs	r0, #0
 5340              	.LVL401:
 5341              		.loc 1 2118 1 view .LVU1894
 5342 0074 02B0     		add	sp, sp, #8
 5343              		.cfi_remember_state
 5344              		.cfi_def_cfa_offset 8
 5345              		@ sp needed
 5346 0076 30BC     		pop	{r4, r5}
 5347              		.cfi_restore 5
 5348              		.cfi_restore 4
 5349              		.cfi_def_cfa_offset 0
 5350              	.LVL402:
 5351              		.loc 1 2118 1 view .LVU1895
 5352 0078 7047     		bx	lr
 5353              	.LVL403:
 5354              	.L437:
 5355              		.cfi_restore_state
 5356              		.loc 1 2056 96 discriminator 2 view .LVU1896
 5357 007a 002D     		cmp	r5, #0
 5358 007c F9DA     		bge	.L442
ARM GAS  C:\Users\DEVELO~1\AppData\Local\Temp\cc15HDCU.s 			page 95


 5359              		.loc 1 2057 27 view .LVU1897
 5360 007e DA07     		lsls	r2, r3, #31
 5361 0080 F7D4     		bmi	.L442
 5362              	.LVL404:
 5363              	.L439:
 5364              		.loc 1 2065 5 is_stmt 1 view .LVU1898
 5365              		.loc 1 2065 28 is_stmt 0 view .LVU1899
 5366 0082 D1F80035 		ldr	r3, [r1, #1280]
 5367              	.LVL405:
 5368              		.loc 1 2065 28 view .LVU1900
 5369 0086 43F08043 		orr	r3, r3, #1073741824
 5370 008a C1F80035 		str	r3, [r1, #1280]
 5371              		.loc 1 2067 5 is_stmt 1 view .LVU1901
 5372              		.loc 1 2067 14 is_stmt 0 view .LVU1902
 5373 008e 8368     		ldr	r3, [r0, #8]
 5374              		.loc 1 2067 8 view .LVU1903
 5375 0090 9B06     		lsls	r3, r3, #26
 5376 0092 24D4     		bmi	.L444
 5377              		.loc 1 2069 7 is_stmt 1 view .LVU1904
 5378              		.loc 1 2069 16 is_stmt 0 view .LVU1905
 5379 0094 C36A     		ldr	r3, [r0, #44]
 5380              		.loc 1 2069 10 view .LVU1906
 5381 0096 13F47F0F 		tst	r3, #16711680
 5382              		.loc 1 2071 32 view .LVU1907
 5383 009a D1F80035 		ldr	r3, [r1, #1280]
 5384              		.loc 1 2069 10 view .LVU1908
 5385 009e 16D1     		bne	.L447
 5386              		.loc 1 2071 9 is_stmt 1 view .LVU1909
 5387              		.loc 1 2071 32 is_stmt 0 view .LVU1910
 5388 00a0 23F00043 		bic	r3, r3, #-2147483648
 5389 00a4 C1F80035 		str	r3, [r1, #1280]
 5390              		.loc 1 2072 9 is_stmt 1 view .LVU1911
 5391              		.loc 1 2072 32 is_stmt 0 view .LVU1912
 5392 00a8 D1F80035 		ldr	r3, [r1, #1280]
 5393 00ac 43F00043 		orr	r3, r3, #-2147483648
 5394 00b0 C1F80035 		str	r3, [r1, #1280]
 5395 00b4 03E0     		b	.L446
 5396              	.L461:
 5397              		.loc 1 2081 33 view .LVU1913
 5398 00b6 DCF80030 		ldr	r3, [ip]
 5399              		.loc 1 2081 66 view .LVU1914
 5400 00ba 002B     		cmp	r3, #0
 5401 00bc D9DA     		bge	.L442
 5402              	.L446:
 5403              		.loc 1 2073 9 is_stmt 1 view .LVU1915
 5404              		.loc 1 2075 11 view .LVU1916
 5405              		.loc 1 2081 66 view .LVU1917
 5406              		.loc 1 2075 16 is_stmt 0 view .LVU1918
 5407 00be 019B     		ldr	r3, [sp, #4]
 5408 00c0 0133     		adds	r3, r3, #1
 5409 00c2 0193     		str	r3, [sp, #4]
 5410              		.loc 1 2077 11 is_stmt 1 view .LVU1919
 5411              		.loc 1 2077 21 is_stmt 0 view .LVU1920
 5412 00c4 019B     		ldr	r3, [sp, #4]
 5413              		.loc 1 2077 14 view .LVU1921
 5414 00c6 B3F57A7F 		cmp	r3, #1000
 5415 00ca F4D9     		bls	.L461
ARM GAS  C:\Users\DEVELO~1\AppData\Local\Temp\cc15HDCU.s 			page 96


 5416 00cc D1E7     		b	.L442
 5417              	.L447:
 5418              		.loc 1 2113 7 is_stmt 1 view .LVU1922
 5419              		.loc 1 2113 30 is_stmt 0 view .LVU1923
 5420 00ce 43F00043 		orr	r3, r3, #-2147483648
 5421              		.loc 1 2118 1 view .LVU1924
 5422 00d2 0020     		movs	r0, #0
 5423              	.LVL406:
 5424              		.loc 1 2113 30 view .LVU1925
 5425 00d4 C1F80035 		str	r3, [r1, #1280]
 5426              		.loc 1 2118 1 view .LVU1926
 5427 00d8 02B0     		add	sp, sp, #8
 5428              		.cfi_remember_state
 5429              		.cfi_def_cfa_offset 8
 5430              		@ sp needed
 5431 00da 30BC     		pop	{r4, r5}
 5432              		.cfi_restore 5
 5433              		.cfi_restore 4
 5434              		.cfi_def_cfa_offset 0
 5435              	.LVL407:
 5436              		.loc 1 2118 1 view .LVU1927
 5437 00dc 7047     		bx	lr
 5438              	.LVL408:
 5439              	.L444:
 5440              		.cfi_restore_state
 5441              		.loc 1 2090 7 is_stmt 1 view .LVU1928
 5442              		.loc 1 2090 30 is_stmt 0 view .LVU1929
 5443 00de D1F80035 		ldr	r3, [r1, #1280]
 5444              		.loc 1 2118 1 view .LVU1930
 5445 00e2 0020     		movs	r0, #0
 5446              	.LVL409:
 5447              		.loc 1 2090 30 view .LVU1931
 5448 00e4 43F00043 		orr	r3, r3, #-2147483648
 5449 00e8 C1F80035 		str	r3, [r1, #1280]
 5450              		.loc 1 2118 1 view .LVU1932
 5451 00ec 02B0     		add	sp, sp, #8
 5452              		.cfi_def_cfa_offset 8
 5453              		@ sp needed
 5454 00ee 30BC     		pop	{r4, r5}
 5455              		.cfi_restore 5
 5456              		.cfi_restore 4
 5457              		.cfi_def_cfa_offset 0
 5458              	.LVL410:
 5459              		.loc 1 2118 1 view .LVU1933
 5460 00f0 7047     		bx	lr
 5461              		.cfi_endproc
 5462              	.LFE185:
 5463              		.size	USB_HC_Halt, .-USB_HC_Halt
 5464              		.section	.text.USB_DoPing,"ax",%progbits
 5465              		.align	1
 5466              		.p2align 4,,15
 5467              		.global	USB_DoPing
 5468              		.syntax unified
 5469              		.thumb
 5470              		.thumb_func
 5471              		.type	USB_DoPing, %function
 5472              	USB_DoPing:
ARM GAS  C:\Users\DEVELO~1\AppData\Local\Temp\cc15HDCU.s 			page 97


 5473              	.LVL411:
 5474              	.LFB186:
 5475              		.loc 1 2128 1 is_stmt 1 view -0
 5476              		.cfi_startproc
 5477              		@ args = 0, pretend = 0, frame = 0
 5478              		@ frame_needed = 0, uses_anonymous_args = 0
 5479              		@ link register save eliminated.
 5480              		.loc 1 2129 3 view .LVU1935
 5481              		.loc 1 2128 1 is_stmt 0 view .LVU1936
 5482 0000 0346     		mov	r3, r0
 5483              	.LVL412:
 5484              		.loc 1 2130 3 is_stmt 1 view .LVU1937
 5485              		.loc 1 2131 3 view .LVU1938
 5486              		.loc 1 2132 3 view .LVU1939
 5487              		.loc 1 2134 3 view .LVU1940
 5488              		.loc 1 2134 26 is_stmt 0 view .LVU1941
 5489 0002 074A     		ldr	r2, .L463
 5490              		.loc 1 2144 1 view .LVU1942
 5491 0004 0020     		movs	r0, #0
 5492              	.LVL413:
 5493              		.loc 1 2134 3 view .LVU1943
 5494 0006 03EB4111 		add	r1, r3, r1, lsl #5
 5495              	.LVL414:
 5496              		.loc 1 2134 26 view .LVU1944
 5497 000a C1F81025 		str	r2, [r1, #1296]
 5498              		.loc 1 2138 3 is_stmt 1 view .LVU1945
 5499              		.loc 1 2138 10 is_stmt 0 view .LVU1946
 5500 000e D1F80035 		ldr	r3, [r1, #1280]
 5501              	.LVL415:
 5502              		.loc 1 2139 3 is_stmt 1 view .LVU1947
 5503              		.loc 1 2139 10 is_stmt 0 view .LVU1948
 5504 0012 23F08043 		bic	r3, r3, #1073741824
 5505              	.LVL416:
 5506              		.loc 1 2140 3 is_stmt 1 view .LVU1949
 5507              		.loc 1 2140 10 is_stmt 0 view .LVU1950
 5508 0016 43F00043 		orr	r3, r3, #-2147483648
 5509              	.LVL417:
 5510              		.loc 1 2141 3 is_stmt 1 view .LVU1951
 5511              		.loc 1 2141 26 is_stmt 0 view .LVU1952
 5512 001a C1F80035 		str	r3, [r1, #1280]
 5513              		.loc 1 2143 3 is_stmt 1 view .LVU1953
 5514              		.loc 1 2144 1 is_stmt 0 view .LVU1954
 5515 001e 7047     		bx	lr
 5516              	.L464:
 5517              		.align	2
 5518              	.L463:
 5519 0020 00000880 		.word	-2146959360
 5520              		.cfi_endproc
 5521              	.LFE186:
 5522              		.size	USB_DoPing, .-USB_DoPing
 5523              		.section	.text.USB_StopHost,"ax",%progbits
 5524              		.align	1
 5525              		.p2align 4,,15
 5526              		.global	USB_StopHost
 5527              		.syntax unified
 5528              		.thumb
 5529              		.thumb_func
ARM GAS  C:\Users\DEVELO~1\AppData\Local\Temp\cc15HDCU.s 			page 98


 5530              		.type	USB_StopHost, %function
 5531              	USB_StopHost:
 5532              	.LVL418:
 5533              	.LFB187:
 5534              		.loc 1 2152 1 is_stmt 1 view -0
 5535              		.cfi_startproc
 5536              		@ args = 0, pretend = 0, frame = 8
 5537              		@ frame_needed = 0, uses_anonymous_args = 0
 5538              		.loc 1 2153 3 view .LVU1956
 5539              		.loc 1 2154 3 view .LVU1957
 5540              		.loc 1 2152 1 is_stmt 0 view .LVU1958
 5541 0000 30B5     		push	{r4, r5, lr}
 5542              		.cfi_def_cfa_offset 12
 5543              		.cfi_offset 4, -12
 5544              		.cfi_offset 5, -8
 5545              		.cfi_offset 14, -4
 5546              		.loc 1 2155 17 view .LVU1959
 5547 0002 0023     		movs	r3, #0
 5548              		.loc 1 2152 1 view .LVU1960
 5549 0004 83B0     		sub	sp, sp, #12
 5550              		.cfi_def_cfa_offset 24
 5551              		.loc 1 2152 1 view .LVU1961
 5552 0006 0446     		mov	r4, r0
 5553              	.LVL419:
 5554              		.loc 1 2155 3 is_stmt 1 view .LVU1962
 5555              		.loc 1 2162 7 is_stmt 0 view .LVU1963
 5556 0008 1021     		movs	r1, #16
 5557              		.loc 1 2155 17 view .LVU1964
 5558 000a 0193     		str	r3, [sp, #4]
 5559              		.loc 1 2156 3 is_stmt 1 view .LVU1965
 5560              		.loc 1 2157 3 view .LVU1966
 5561              		.loc 1 2159 3 view .LVU1967
 5562              	.LVL420:
 5563              	.LBB52:
 5564              	.LBI52:
 5565              		.loc 1 238 19 view .LVU1968
 5566              	.LBB53:
 5567              		.loc 1 240 3 view .LVU1969
 5568              		.loc 1 240 17 is_stmt 0 view .LVU1970
 5569 000c 8368     		ldr	r3, [r0, #8]
 5570 000e 23F00103 		bic	r3, r3, #1
 5571 0012 8360     		str	r3, [r0, #8]
 5572              		.loc 1 241 3 is_stmt 1 view .LVU1971
 5573              	.LVL421:
 5574              		.loc 1 241 3 is_stmt 0 view .LVU1972
 5575              	.LBE53:
 5576              	.LBE52:
 5577              		.loc 1 2162 3 is_stmt 1 view .LVU1973
 5578              		.loc 1 2162 7 is_stmt 0 view .LVU1974
 5579 0014 FFF7FEFF 		bl	USB_FlushTxFifo
 5580              	.LVL422:
 5581              		.loc 1 2162 7 view .LVU1975
 5582 0018 0546     		mov	r5, r0
 5583              		.loc 1 2167 7 view .LVU1976
 5584 001a 2046     		mov	r0, r4
 5585              	.LVL423:
 5586              		.loc 1 2167 3 is_stmt 1 view .LVU1977
ARM GAS  C:\Users\DEVELO~1\AppData\Local\Temp\cc15HDCU.s 			page 99


 5587 001c 04F5E061 		add	r1, r4, #1792
 5588              		.loc 1 2167 7 is_stmt 0 view .LVU1978
 5589 0020 FFF7FEFF 		bl	USB_FlushRxFifo
 5590              	.LVL424:
 5591              		.loc 1 2167 6 view .LVU1979
 5592 0024 2843     		orrs	r0, r0, r5
 5593 0026 04F5A062 		add	r2, r4, #1280
 5594 002a C0B2     		uxtb	r0, r0
 5595              		.loc 1 2169 9 view .LVU1980
 5596 002c 9446     		mov	ip, r2
 5597 002e 0038     		subs	r0, r0, #0
 5598 0030 18BF     		it	ne
 5599 0032 0120     		movne	r0, #1
 5600              	.LVL425:
 5601              		.loc 1 2173 3 is_stmt 1 view .LVU1981
 5602              		.loc 1 2173 18 view .LVU1982
 5603              	.L466:
 5604              		.loc 1 2175 5 discriminator 3 view .LVU1983
 5605              		.loc 1 2175 11 is_stmt 0 discriminator 3 view .LVU1984
 5606 0034 DCF80030 		ldr	r3, [ip]
 5607              	.LVL426:
 5608              		.loc 1 2176 5 is_stmt 1 discriminator 3 view .LVU1985
 5609              		.loc 1 2177 5 discriminator 3 view .LVU1986
 5610              		.loc 1 2178 5 discriminator 3 view .LVU1987
 5611 0038 23F08023 		bic	r3, r3, #-2147450880
 5612              	.LVL427:
 5613              		.loc 1 2178 11 is_stmt 0 discriminator 3 view .LVU1988
 5614 003c 43F08043 		orr	r3, r3, #1073741824
 5615              	.LVL428:
 5616              		.loc 1 2179 5 is_stmt 1 discriminator 3 view .LVU1989
 5617              		.loc 1 2179 24 is_stmt 0 discriminator 3 view .LVU1990
