ARM GAS  C:\Users\DEVELO~1\AppData\Local\Temp\ccdWOHHf.s 			page 1


   1              		.cpu cortex-m7
   2              		.arch armv7e-m
   3              		.fpu softvfp
   4              		.eabi_attribute 20, 1
   5              		.eabi_attribute 21, 1
   6              		.eabi_attribute 23, 3
   7              		.eabi_attribute 24, 1
   8              		.eabi_attribute 25, 1
   9              		.eabi_attribute 26, 1
  10              		.eabi_attribute 30, 2
  11              		.eabi_attribute 34, 1
  12              		.eabi_attribute 18, 4
  13              		.file	"usb_device.c"
  14              		.text
  15              	.Ltext0:
  16              		.cfi_sections	.debug_frame
  17              		.section	.text.usb_device_start,"ax",%progbits
  18              		.align	1
  19              		.p2align 4,,15
  20              		.global	usb_device_start
  21              		.syntax unified
  22              		.thumb
  23              		.thumb_func
  24              		.type	usb_device_start, %function
  25              	usb_device_start:
  26              	.LFB431:
  27              		.file 1 "drivers/usb/usb_device.c"
  28              		.loc 1 48 29 view -0
  29              		.cfi_startproc
  30              		@ args = 0, pretend = 0, frame = 0
  31              		@ frame_needed = 0, uses_anonymous_args = 0
  32              		.loc 1 50 5 view .LVU1
  33              		.loc 1 48 29 is_stmt 0 view .LVU2
  34 0000 10B5     		push	{r4, lr}
  35              		.cfi_def_cfa_offset 8
  36              		.cfi_offset 4, -8
  37              		.cfi_offset 14, -4
  38              		.loc 1 50 5 view .LVU3
  39 0002 0D4C     		ldr	r4, .L4
  40              		.loc 1 51 5 view .LVU4
  41 0004 43F69820 		movw	r0, #15000
  42              		.loc 1 50 5 view .LVU5
  43 0008 D4F89020 		ldr	r2, [r4, #144]
  44 000c D2F80438 		ldr	r3, [r2, #2052]
  45 0010 43F00203 		orr	r3, r3, #2
  46 0014 C2F80438 		str	r3, [r2, #2052]
  47              		.loc 1 51 5 is_stmt 1 view .LVU6
  48 0018 FFF7FEFF 		bl	chThdSleep
  49              	.LVL0:
  50              		.loc 1 54 5 view .LVU7
  51 001c 0749     		ldr	r1, .L4+4
  52 001e 2046     		mov	r0, r4
  53 0020 FFF7FEFF 		bl	usbStart
  54              	.LVL1:
  55              		.loc 1 64 5 view .LVU8
  56              		.loc 1 74 5 view .LVU9
  57 0024 D4F89020 		ldr	r2, [r4, #144]
ARM GAS  C:\Users\DEVELO~1\AppData\Local\Temp\ccdWOHHf.s 			page 2


  58 0028 D2F80438 		ldr	r3, [r2, #2052]
  59 002c 23F00203 		bic	r3, r3, #2
  60 0030 C2F80438 		str	r3, [r2, #2052]
  61              		.loc 1 75 1 is_stmt 0 view .LVU10
  62 0034 10BD     		pop	{r4, pc}
  63              	.L5:
  64 0036 00BF     		.align	2
  65              	.L4:
  66 0038 00000000 		.word	USBD1
  67 003c 00000000 		.word	usbcfg
  68              		.cfi_endproc
  69              	.LFE431:
  70              		.size	usb_device_start, .-usb_device_start
  71              		.section	.text.usb_device_active,"ax",%progbits
  72              		.align	1
  73              		.p2align 4,,15
  74              		.global	usb_device_active
  75              		.syntax unified
  76              		.thumb
  77              		.thumb_func
  78              		.type	usb_device_active, %function
  79              	usb_device_active:
  80              	.LFB432:
  81              		.loc 1 82 30 is_stmt 1 view -0
  82              		.cfi_startproc
  83              		@ args = 0, pretend = 0, frame = 0
  84              		@ frame_needed = 0, uses_anonymous_args = 0
  85              		@ link register save eliminated.
  86              		.loc 1 83 5 view .LVU12
  87              		.loc 1 83 12 is_stmt 0 view .LVU13
  88 0000 014B     		ldr	r3, .L7
  89 0002 1878     		ldrb	r0, [r3]	@ zero_extendqisi2
  90              		.loc 1 84 1 view .LVU14
  91 0004 7047     		bx	lr
  92              	.L8:
  93 0006 00BF     		.align	2
  94              	.L7:
  95 0008 00000000 		.word	usb_midi_tx_ready
  96              		.cfi_endproc
  97              	.LFE432:
  98              		.size	usb_device_active, .-usb_device_active
  99              		.text
 100              	.Letext0:
 101              		.file 2 "c:\\chibistudio\\tools\\gnu tools arm embedded\\11.3 2022.08\\lib\\gcc\\arm-none-eabi\\11
 102              		.file 3 "c:\\chibistudio\\tools\\gnu tools arm embedded\\11.3 2022.08\\arm-none-eabi\\include\\mac
 103              		.file 4 "c:\\chibistudio\\tools\\gnu tools arm embedded\\11.3 2022.08\\arm-none-eabi\\include\\sys
 104              		.file 5 "../../../os/rt/include/chearly.h"
 105              		.file 6 "../../../os/rt/include/chtime.h"
 106              		.file 7 "../../../os/hal/include/hal_usb.h"
 107              		.file 8 "../../../os/hal/ports/STM32/LLD/OTGv1/hal_usb_lld.h"
 108              		.file 9 "../../../os/hal/ports/STM32/LLD/OTGv1/stm32_otg.h"
 109              		.file 10 "drivers/usb/usbcfg.h"
 110              		.file 11 "../../../os/rt/include/chthreads.h"
 111              		.section	.debug_info,"",%progbits
 112              	.Ldebug_info0:
 113 0000 EE0B0000 		.4byte	0xbee
 114 0004 0500     		.2byte	0x5
ARM GAS  C:\Users\DEVELO~1\AppData\Local\Temp\ccdWOHHf.s 			page 3


 115 0006 01       		.byte	0x1
 116 0007 04       		.byte	0x4
 117 0008 00000000 		.4byte	.Ldebug_abbrev0
 118 000c 17       		.uleb128 0x17
 119 000d 90060000 		.4byte	.LASF185
 120 0011 1D       		.byte	0x1d
 121 0012 83030000 		.4byte	.LASF186
 122 0016 EE010000 		.4byte	.LASF187
 123 001a 0C000000 		.4byte	.LLRL0
 124 001e 00000000 		.4byte	0
 125 0022 00000000 		.4byte	.Ldebug_line0
 126 0026 18       		.uleb128 0x18
 127 0027 04       		.byte	0x4
 128 0028 05       		.byte	0x5
 129 0029 696E7400 		.ascii	"int\000"
 130 002d 05       		.uleb128 0x5
 131 002e 21000000 		.4byte	.LASF4
 132 0032 02       		.byte	0x2
 133 0033 D1       		.byte	0xd1
 134 0034 17       		.byte	0x17
 135 0035 39000000 		.4byte	0x39
 136 0039 0A       		.uleb128 0xa
 137 003a 04       		.byte	0x4
 138 003b 07       		.byte	0x7
 139 003c 84020000 		.4byte	.LASF0
 140 0040 0A       		.uleb128 0xa
 141 0041 08       		.byte	0x8
 142 0042 05       		.byte	0x5
 143 0043 E7000000 		.4byte	.LASF1
 144 0047 0A       		.uleb128 0xa
 145 0048 08       		.byte	0x8
 146 0049 04       		.byte	0x4
 147 004a 3E060000 		.4byte	.LASF2
 148 004e 0A       		.uleb128 0xa
 149 004f 01       		.byte	0x1
 150 0050 06       		.byte	0x6
 151 0051 F5000000 		.4byte	.LASF3
 152 0055 05       		.uleb128 0x5
 153 0056 4A000000 		.4byte	.LASF5
 154 005a 03       		.byte	0x3
 155 005b 2B       		.byte	0x2b
 156 005c 18       		.byte	0x18
 157 005d 61000000 		.4byte	0x61
 158 0061 0A       		.uleb128 0xa
 159 0062 01       		.byte	0x1
 160 0063 08       		.byte	0x8
 161 0064 5A050000 		.4byte	.LASF6
 162 0068 0A       		.uleb128 0xa
 163 0069 02       		.byte	0x2
 164 006a 05       		.byte	0x5
 165 006b 7D050000 		.4byte	.LASF7
 166 006f 05       		.uleb128 0x5
 167 0070 6C060000 		.4byte	.LASF8
 168 0074 03       		.byte	0x3
 169 0075 39       		.byte	0x39
 170 0076 19       		.byte	0x19
 171 0077 7B000000 		.4byte	0x7b
ARM GAS  C:\Users\DEVELO~1\AppData\Local\Temp\ccdWOHHf.s 			page 4


 172 007b 0A       		.uleb128 0xa
 173 007c 02       		.byte	0x2
 174 007d 07       		.byte	0x7
 175 007e 86070000 		.4byte	.LASF9
 176 0082 05       		.uleb128 0x5
 177 0083 45070000 		.4byte	.LASF10
 178 0087 03       		.byte	0x3
 179 0088 4D       		.byte	0x4d
 180 0089 18       		.byte	0x18
 181 008a 8E000000 		.4byte	0x8e
 182 008e 0A       		.uleb128 0xa
 183 008f 04       		.byte	0x4
 184 0090 05       		.byte	0x5
 185 0091 95080000 		.4byte	.LASF11
 186 0095 05       		.uleb128 0x5
 187 0096 99070000 		.4byte	.LASF12
 188 009a 03       		.byte	0x3
 189 009b 4F       		.byte	0x4f
 190 009c 19       		.byte	0x19
 191 009d A1000000 		.4byte	0xa1
 192 00a1 0A       		.uleb128 0xa
 193 00a2 04       		.byte	0x4
 194 00a3 07       		.byte	0x7
 195 00a4 1C010000 		.4byte	.LASF13
 196 00a8 05       		.uleb128 0x5
 197 00a9 CC040000 		.4byte	.LASF14
 198 00ad 03       		.byte	0x3
 199 00ae 69       		.byte	0x69
 200 00af 19       		.byte	0x19
 201 00b0 B4000000 		.4byte	0xb4
 202 00b4 0A       		.uleb128 0xa
 203 00b5 08       		.byte	0x8
 204 00b6 07       		.byte	0x7
 205 00b7 3A010000 		.4byte	.LASF15
 206 00bb 05       		.uleb128 0x5
 207 00bc 3B080000 		.4byte	.LASF16
 208 00c0 04       		.byte	0x4
 209 00c1 18       		.byte	0x18
 210 00c2 13       		.byte	0x13
 211 00c3 55000000 		.4byte	0x55
 212 00c7 0E       		.uleb128 0xe
 213 00c8 BB000000 		.4byte	0xbb
 214 00cc 05       		.uleb128 0x5
 215 00cd DE010000 		.4byte	.LASF17
 216 00d1 04       		.byte	0x4
 217 00d2 24       		.byte	0x24
 218 00d3 14       		.byte	0x14
 219 00d4 6F000000 		.4byte	0x6f
 220 00d8 05       		.uleb128 0x5
 221 00d9 52050000 		.4byte	.LASF18
 222 00dd 04       		.byte	0x4
 223 00de 2C       		.byte	0x2c
 224 00df 13       		.byte	0x13
 225 00e0 82000000 		.4byte	0x82
 226 00e4 05       		.uleb128 0x5
 227 00e5 D2070000 		.4byte	.LASF19
 228 00e9 04       		.byte	0x4
ARM GAS  C:\Users\DEVELO~1\AppData\Local\Temp\ccdWOHHf.s 			page 5


 229 00ea 30       		.byte	0x30
 230 00eb 14       		.byte	0x14
 231 00ec 95000000 		.4byte	0x95
 232 00f0 0C       		.uleb128 0xc
 233 00f1 E4000000 		.4byte	0xe4
 234 00f5 05       		.uleb128 0x5
 235 00f6 38000000 		.4byte	.LASF20
 236 00fa 04       		.byte	0x4
 237 00fb 3C       		.byte	0x3c
 238 00fc 14       		.byte	0x14
 239 00fd A8000000 		.4byte	0xa8
 240 0101 05       		.uleb128 0x5
 241 0102 57030000 		.4byte	.LASF21
 242 0106 05       		.byte	0x5
 243 0107 58       		.byte	0x58
 244 0108 19       		.byte	0x19
 245 0109 D8000000 		.4byte	0xd8
 246 010d 0A       		.uleb128 0xa
 247 010e 01       		.byte	0x1
 248 010f 08       		.byte	0x8
 249 0110 4A060000 		.4byte	.LASF22
 250 0114 05       		.uleb128 0x5
 251 0115 6D020000 		.4byte	.LASF23
 252 0119 06       		.byte	0x6
 253 011a 79       		.byte	0x79
 254 011b 12       		.byte	0x12
 255 011c E4000000 		.4byte	0xe4
 256 0120 05       		.uleb128 0x5
 257 0121 E9020000 		.4byte	.LASF24
 258 0125 06       		.byte	0x6
 259 0126 9B       		.byte	0x9b
 260 0127 12       		.byte	0x12
 261 0128 F5000000 		.4byte	0xf5
 262 012c 19       		.uleb128 0x19
 263 012d 04       		.byte	0x4
 264 012e 07       		.uleb128 0x7
 265 012f F0000000 		.4byte	0xf0
 266 0133 3E010000 		.4byte	0x13e
 267 0137 08       		.uleb128 0x8
 268 0138 39000000 		.4byte	0x39
 269 013c 0F       		.byte	0xf
 270 013d 00       		.byte	0
 271 013e 0C       		.uleb128 0xc
 272 013f 2E010000 		.4byte	0x12e
 273 0143 07       		.uleb128 0x7
 274 0144 F0000000 		.4byte	0xf0
 275 0148 53010000 		.4byte	0x153
 276 014c 08       		.uleb128 0x8
 277 014d 39000000 		.4byte	0x39
 278 0151 0E       		.byte	0xe
 279 0152 00       		.byte	0
 280 0153 0C       		.uleb128 0xc
 281 0154 43010000 		.4byte	0x143
 282 0158 0A       		.uleb128 0xa
 283 0159 04       		.byte	0x4
 284 015a 04       		.byte	0x4
 285 015b E8040000 		.4byte	.LASF25
ARM GAS  C:\Users\DEVELO~1\AppData\Local\Temp\ccdWOHHf.s 			page 6


 286 015f 0A       		.uleb128 0xa
 287 0160 08       		.byte	0x8
 288 0161 04       		.byte	0x4
 289 0162 E7010000 		.4byte	.LASF26
 290 0166 09       		.uleb128 0x9
 291 0167 BB000000 		.4byte	0xbb
 292 016b 0A       		.uleb128 0xa
 293 016c 01       		.byte	0x1
 294 016d 02       		.byte	0x2
 295 016e 4C050000 		.4byte	.LASF27
 296 0172 0C       		.uleb128 0xc
 297 0173 6B010000 		.4byte	0x16b
 298 0177 09       		.uleb128 0x9
 299 0178 C7000000 		.4byte	0xc7
 300 017c 06       		.uleb128 0x6
 301 017d 31080000 		.4byte	.LASF28
 302 0181 07       		.byte	0x7
 303 0182 0301     		.2byte	0x103
 304 0184 1A       		.byte	0x1a
 305 0185 89010000 		.4byte	0x189
 306 0189 1A       		.uleb128 0x1a
 307 018a 31080000 		.4byte	.LASF28
 308 018e 9C       		.byte	0x9c
 309 018f 08       		.byte	0x8
 310 0190 A501     		.2byte	0x1a5
 311 0192 08       		.byte	0x8
 312 0193 9E020000 		.4byte	0x29e
 313 0197 01       		.uleb128 0x1
 314 0198 76010000 		.4byte	.LASF29
 315 019c 08       		.byte	0x8
 316 019d A901     		.2byte	0x1a9
 317 019f 21       		.byte	0x21
 318 01a0 DB020000 		.4byte	0x2db
 319 01a4 00       		.byte	0
 320 01a5 01       		.uleb128 0x1
 321 01a6 B2020000 		.4byte	.LASF30
 322 01aa 08       		.byte	0x8
 323 01ab AD01     		.2byte	0x1ad
 324 01ad 22       		.byte	0x22
 325 01ae 0D0B0000 		.4byte	0xb0d
 326 01b2 04       		.byte	0x4
 327 01b3 01       		.uleb128 0x1
 328 01b4 FE020000 		.4byte	.LASF31
 329 01b8 08       		.byte	0x8
 330 01b9 B101     		.2byte	0x1b1
 331 01bb 21       		.byte	0x21
 332 01bc CC000000 		.4byte	0xcc
 333 01c0 08       		.byte	0x8
 334 01c1 01       		.uleb128 0x1
 335 01c2 B3030000 		.4byte	.LASF32
 336 01c6 08       		.byte	0x8
 337 01c7 B501     		.2byte	0x1b5
 338 01c9 21       		.byte	0x21
 339 01ca CC000000 		.4byte	0xcc
 340 01ce 0A       		.byte	0xa
 341 01cf 13       		.uleb128 0x13
 342 01d0 65706300 		.ascii	"epc\000"
ARM GAS  C:\Users\DEVELO~1\AppData\Local\Temp\ccdWOHHf.s 			page 7


 343 01d4 B901     		.2byte	0x1b9
 344 01d6 120B0000 		.4byte	0xb12
 345 01da 0C       		.byte	0xc
 346 01db 01       		.uleb128 0x1
 347 01dc 63080000 		.4byte	.LASF33
 348 01e0 08       		.byte	0x8
 349 01e1 C001     		.2byte	0x1c0
 350 01e3 22       		.byte	0x22
 351 01e4 270B0000 		.4byte	0xb27
 352 01e8 30       		.byte	0x30
 353 01e9 01       		.uleb128 0x1
 354 01ea 7C010000 		.4byte	.LASF34
 355 01ee 08       		.byte	0x8
 356 01ef C701     		.2byte	0x1c7
 357 01f1 22       		.byte	0x22
 358 01f2 270B0000 		.4byte	0xb27
 359 01f6 50       		.byte	0x50
 360 01f7 01       		.uleb128 0x1
 361 01f8 22060000 		.4byte	.LASF35
 362 01fc 08       		.byte	0x8
 363 01fd CB01     		.2byte	0x1cb
 364 01ff 21       		.byte	0x21
 365 0200 1E030000 		.4byte	0x31e
 366 0204 70       		.byte	0x70
 367 0205 01       		.uleb128 0x1
 368 0206 11030000 		.4byte	.LASF36
 369 020a 08       		.byte	0x8
 370 020b CF01     		.2byte	0x1cf
 371 020d 22       		.byte	0x22
 372 020e 66010000 		.4byte	0x166
 373 0212 74       		.byte	0x74
 374 0213 01       		.uleb128 0x1
 375 0214 A6030000 		.4byte	.LASF37
 376 0218 08       		.byte	0x8
 377 0219 D301     		.2byte	0x1d3
 378 021b 21       		.byte	0x21
 379 021c 2D000000 		.4byte	0x2d
 380 0220 78       		.byte	0x78
 381 0221 01       		.uleb128 0x1
 382 0222 6C070000 		.4byte	.LASF38
 383 0226 08       		.byte	0x8
 384 0227 D701     		.2byte	0x1d7
 385 0229 21       		.byte	0x21
 386 022a A6030000 		.4byte	0x3a6
 387 022e 7C       		.byte	0x7c
 388 022f 01       		.uleb128 0x1
 389 0230 9C040000 		.4byte	.LASF39
 390 0234 08       		.byte	0x8
 391 0235 DB01     		.2byte	0x1db
 392 0237 21       		.byte	0x21
 393 0238 370B0000 		.4byte	0xb37
 394 023c 80       		.byte	0x80
 395 023d 01       		.uleb128 0x1
 396 023e FF070000 		.4byte	.LASF40
 397 0242 08       		.byte	0x8
 398 0243 DF01     		.2byte	0x1df
 399 0245 21       		.byte	0x21
ARM GAS  C:\Users\DEVELO~1\AppData\Local\Temp\ccdWOHHf.s 			page 8


 400 0246 CC000000 		.4byte	0xcc
 401 024a 88       		.byte	0x88
 402 024b 01       		.uleb128 0x1
 403 024c 56040000 		.4byte	.LASF41
 404 0250 08       		.byte	0x8
 405 0251 E301     		.2byte	0x1e3
 406 0253 21       		.byte	0x21
 407 0254 BB000000 		.4byte	0xbb
 408 0258 8A       		.byte	0x8a
 409 0259 01       		.uleb128 0x1
 410 025a B4080000 		.4byte	.LASF42
 411 025e 08       		.byte	0x8
 412 025f E701     		.2byte	0x1e7
 413 0261 21       		.byte	0x21
 414 0262 BB000000 		.4byte	0xbb
 415 0266 8B       		.byte	0x8b
 416 0267 01       		.uleb128 0x1
 417 0268 EA050000 		.4byte	.LASF43
 418 026c 08       		.byte	0x8
 419 026d EB01     		.2byte	0x1eb
 420 026f 21       		.byte	0x21
 421 0270 DB020000 		.4byte	0x2db
 422 0274 8C       		.byte	0x8c
 423 0275 13       		.uleb128 0x13
 424 0276 6F746700 		.ascii	"otg\000"
 425 027a F301     		.2byte	0x1f3
 426 027c 470B0000 		.4byte	0xb47
 427 0280 90       		.byte	0x90
 428 0281 01       		.uleb128 0x1
 429 0282 9C030000 		.4byte	.LASF44
 430 0286 08       		.byte	0x8
 431 0287 F701     		.2byte	0x1f7
 432 0289 22       		.byte	0x22
 433 028a 4C0B0000 		.4byte	0xb4c
 434 028e 94       		.byte	0x94
 435 028f 01       		.uleb128 0x1
 436 0290 EE040000 		.4byte	.LASF45
 437 0294 08       		.byte	0x8
 438 0295 FB01     		.2byte	0x1fb
 439 0297 21       		.byte	0x21
 440 0298 E4000000 		.4byte	0xe4
 441 029c 98       		.byte	0x98
 442 029d 00       		.byte	0
 443 029e 06       		.uleb128 0x6
 444 029f 87050000 		.4byte	.LASF46
 445 02a3 07       		.byte	0x7
 446 02a4 0801     		.2byte	0x108
 447 02a6 11       		.byte	0x11
 448 02a7 BB000000 		.4byte	0xbb
 449 02ab 0F       		.uleb128 0xf
 450 02ac 61000000 		.4byte	0x61
 451 02b0 0D01     		.2byte	0x10d
 452 02b2 DB020000 		.4byte	0x2db
 453 02b6 04       		.uleb128 0x4
 454 02b7 AD000000 		.4byte	.LASF47
 455 02bb 00       		.byte	0
 456 02bc 04       		.uleb128 0x4
ARM GAS  C:\Users\DEVELO~1\AppData\Local\Temp\ccdWOHHf.s 			page 9


 457 02bd 43050000 		.4byte	.LASF48
 458 02c1 01       		.byte	0x1
 459 02c2 04       		.uleb128 0x4
 460 02c3 39050000 		.4byte	.LASF49
 461 02c7 02       		.byte	0x2
 462 02c8 04       		.uleb128 0x4
 463 02c9 D2050000 		.4byte	.LASF50
 464 02cd 03       		.byte	0x3
 465 02ce 04       		.uleb128 0x4
 466 02cf 91020000 		.4byte	.LASF51
 467 02d3 04       		.byte	0x4
 468 02d4 04       		.uleb128 0x4
 469 02d5 A6080000 		.4byte	.LASF52
 470 02d9 05       		.byte	0x5
 471 02da 00       		.byte	0
 472 02db 06       		.uleb128 0x6
 473 02dc 7C060000 		.4byte	.LASF53
 474 02e0 07       		.byte	0x7
 475 02e1 1401     		.2byte	0x114
 476 02e3 03       		.byte	0x3
 477 02e4 AB020000 		.4byte	0x2ab
 478 02e8 0F       		.uleb128 0xf
 479 02e9 61000000 		.4byte	0x61
 480 02ed 2201     		.2byte	0x122
 481 02ef 1E030000 		.4byte	0x31e
 482 02f3 04       		.uleb128 0x4
 483 02f4 E4030000 		.4byte	.LASF54
 484 02f8 00       		.byte	0
 485 02f9 04       		.uleb128 0x4
 486 02fa C5030000 		.4byte	.LASF55
 487 02fe 09       		.byte	0x9
 488 02ff 04       		.uleb128 0x4
 489 0300 91000000 		.4byte	.LASF56
 490 0304 0A       		.byte	0xa
 491 0305 04       		.uleb128 0x4
 492 0306 6C030000 		.4byte	.LASF57
 493 030a 0B       		.byte	0xb
 494 030b 04       		.uleb128 0x4
 495 030c DB070000 		.4byte	.LASF58
 496 0310 14       		.byte	0x14
 497 0311 04       		.uleb128 0x4
 498 0312 CA020000 		.4byte	.LASF59
 499 0316 15       		.byte	0x15
 500 0317 04       		.uleb128 0x4
 501 0318 5F010000 		.4byte	.LASF60
 502 031c 06       		.byte	0x6
 503 031d 00       		.byte	0
 504 031e 06       		.uleb128 0x6
 505 031f 3D020000 		.4byte	.LASF61
 506 0323 07       		.byte	0x7
 507 0324 2A01     		.2byte	0x12a
 508 0326 03       		.byte	0x3
 509 0327 E8020000 		.4byte	0x2e8
 510 032b 0F       		.uleb128 0xf
 511 032c 61000000 		.4byte	0x61
 512 0330 2F01     		.2byte	0x12f
 513 0332 61030000 		.4byte	0x361
ARM GAS  C:\Users\DEVELO~1\AppData\Local\Temp\ccdWOHHf.s 			page 10


 514 0336 04       		.uleb128 0x4
 515 0337 5C060000 		.4byte	.LASF62
 516 033b 00       		.byte	0
 517 033c 04       		.uleb128 0x4
 518 033d FD040000 		.4byte	.LASF63
 519 0341 01       		.byte	0x1
 520 0342 04       		.uleb128 0x4
 521 0343 57070000 		.4byte	.LASF64
 522 0347 02       		.byte	0x2
 523 0348 04       		.uleb128 0x4
 524 0349 67000000 		.4byte	.LASF65
 525 034d 03       		.byte	0x3
 526 034e 04       		.uleb128 0x4
 527 034f 10060000 		.4byte	.LASF66
 528 0353 04       		.byte	0x4
 529 0354 04       		.uleb128 0x4
 530 0355 CD010000 		.4byte	.LASF67
 531 0359 05       		.byte	0x5
 532 035a 04       		.uleb128 0x4
 533 035b 53020000 		.4byte	.LASF68
 534 035f 06       		.byte	0x6
 535 0360 00       		.byte	0
 536 0361 06       		.uleb128 0x6
 537 0362 5C000000 		.4byte	.LASF69
 538 0366 07       		.byte	0x7
 539 0367 3701     		.2byte	0x137
 540 0369 03       		.byte	0x3
 541 036a 2B030000 		.4byte	0x32b
 542 036e 0D       		.uleb128 0xd
 543 036f 08       		.byte	0x8
 544 0370 07       		.byte	0x7
 545 0371 3C01     		.2byte	0x13c
 546 0373 94030000 		.4byte	0x394
 547 0377 01       		.uleb128 0x1
 548 0378 A2020000 		.4byte	.LASF70
 549 037c 07       		.byte	0x7
 550 037d 4001     		.2byte	0x140
 551 037f 21       		.byte	0x21
 552 0380 2D000000 		.4byte	0x2d
 553 0384 00       		.byte	0
 554 0385 01       		.uleb128 0x1
 555 0386 5D030000 		.4byte	.LASF71
 556 038a 07       		.byte	0x7
 557 038b 4401     		.2byte	0x144
 558 038d 22       		.byte	0x22
 559 038e 77010000 		.4byte	0x177
 560 0392 04       		.byte	0x4
 561 0393 00       		.byte	0
 562 0394 06       		.uleb128 0x6
 563 0395 C0000000 		.4byte	.LASF72
 564 0399 07       		.byte	0x7
 565 039a 4501     		.2byte	0x145
 566 039c 03       		.byte	0x3
 567 039d 6E030000 		.4byte	0x36e
 568 03a1 0E       		.uleb128 0xe
 569 03a2 94030000 		.4byte	0x394
 570 03a6 06       		.uleb128 0x6
ARM GAS  C:\Users\DEVELO~1\AppData\Local\Temp\ccdWOHHf.s 			page 11


 571 03a7 01010000 		.4byte	.LASF73
 572 03ab 07       		.byte	0x7
 573 03ac 4D01     		.2byte	0x14d
 574 03ae 10       		.byte	0x10
 575 03af B3030000 		.4byte	0x3b3
 576 03b3 09       		.uleb128 0x9
 577 03b4 B8030000 		.4byte	0x3b8
 578 03b8 10       		.uleb128 0x10
 579 03b9 C3030000 		.4byte	0x3c3
 580 03bd 0B       		.uleb128 0xb
 581 03be C3030000 		.4byte	0x3c3
 582 03c2 00       		.byte	0
 583 03c3 09       		.uleb128 0x9
 584 03c4 7C010000 		.4byte	0x17c
 585 03c8 06       		.uleb128 0x6
 586 03c9 06080000 		.4byte	.LASF74
 587 03cd 07       		.byte	0x7
 588 03ce 5601     		.2byte	0x156
 589 03d0 10       		.byte	0x10
 590 03d1 D5030000 		.4byte	0x3d5
 591 03d5 09       		.uleb128 0x9
 592 03d6 DA030000 		.4byte	0x3da
 593 03da 10       		.uleb128 0x10
 594 03db EA030000 		.4byte	0x3ea
 595 03df 0B       		.uleb128 0xb
 596 03e0 C3030000 		.4byte	0x3c3
 597 03e4 0B       		.uleb128 0xb
 598 03e5 9E020000 		.4byte	0x29e
 599 03e9 00       		.byte	0
 600 03ea 06       		.uleb128 0x6
 601 03eb B7010000 		.4byte	.LASF75
 602 03ef 07       		.byte	0x7
 603 03f0 5F01     		.2byte	0x15f
 604 03f2 10       		.byte	0x10
 605 03f3 F7030000 		.4byte	0x3f7
 606 03f7 09       		.uleb128 0x9
 607 03f8 FC030000 		.4byte	0x3fc
 608 03fc 10       		.uleb128 0x10
 609 03fd 0C040000 		.4byte	0x40c
 610 0401 0B       		.uleb128 0xb
 611 0402 C3030000 		.4byte	0x3c3
 612 0406 0B       		.uleb128 0xb
 613 0407 61030000 		.4byte	0x361
 614 040b 00       		.byte	0
 615 040c 06       		.uleb128 0x6
 616 040d 72040000 		.4byte	.LASF76
 617 0411 07       		.byte	0x7
 618 0412 6B01     		.2byte	0x16b
 619 0414 10       		.byte	0x10
 620 0415 19040000 		.4byte	0x419
 621 0419 09       		.uleb128 0x9
 622 041a 1E040000 		.4byte	0x41e
 623 041e 14       		.uleb128 0x14
 624 041f 6B010000 		.4byte	0x16b
 625 0423 2D040000 		.4byte	0x42d
 626 0427 0B       		.uleb128 0xb
 627 0428 C3030000 		.4byte	0x3c3
ARM GAS  C:\Users\DEVELO~1\AppData\Local\Temp\ccdWOHHf.s 			page 12


 628 042c 00       		.byte	0
 629 042d 06       		.uleb128 0x6
 630 042e 8C010000 		.4byte	.LASF77
 631 0432 07       		.byte	0x7
 632 0433 7001     		.2byte	0x170
 633 0435 21       		.byte	0x21
 634 0436 3A040000 		.4byte	0x43a
 635 043a 09       		.uleb128 0x9
 636 043b 3F040000 		.4byte	0x43f
 637 043f 14       		.uleb128 0x14
 638 0440 5D040000 		.4byte	0x45d
 639 0444 5D040000 		.4byte	0x45d
 640 0448 0B       		.uleb128 0xb
 641 0449 C3030000 		.4byte	0x3c3
 642 044d 0B       		.uleb128 0xb
 643 044e BB000000 		.4byte	0xbb
 644 0452 0B       		.uleb128 0xb
 645 0453 BB000000 		.4byte	0xbb
 646 0457 0B       		.uleb128 0xb
 647 0458 CC000000 		.4byte	0xcc
 648 045c 00       		.byte	0
 649 045d 09       		.uleb128 0x9
 650 045e A1030000 		.4byte	0x3a1
 651 0462 11       		.uleb128 0x11
 652 0463 29       		.byte	0x29
 653 0464 C1040000 		.4byte	0x4c1
 654 0468 02       		.uleb128 0x2
 655 0469 8E080000 		.4byte	.LASF78
 656 046d 2A       		.byte	0x2a
 657 046e F0000000 		.4byte	0xf0
 658 0472 00       		.byte	0
 659 0473 02       		.uleb128 0x2
 660 0474 32050000 		.4byte	.LASF79
 661 0478 2C       		.byte	0x2c
 662 0479 F0000000 		.4byte	0xf0
 663 047d 04       		.byte	0x4
 664 047e 02       		.uleb128 0x2
 665 047f 96040000 		.4byte	.LASF80
 666 0483 2D       		.byte	0x2d
 667 0484 F0000000 		.4byte	0xf0
 668 0488 08       		.byte	0x8
 669 0489 02       		.uleb128 0x2
 670 048a 51010000 		.4byte	.LASF81
 671 048e 2E       		.byte	0x2e
 672 048f F0000000 		.4byte	0xf0
 673 0493 0C       		.byte	0xc
 674 0494 02       		.uleb128 0x2
 675 0495 CE000000 		.4byte	.LASF82
 676 0499 30       		.byte	0x30
 677 049a F0000000 		.4byte	0xf0
 678 049e 10       		.byte	0x10
 679 049f 02       		.uleb128 0x2
 680 04a0 D9020000 		.4byte	.LASF83
 681 04a4 32       		.byte	0x32
 682 04a5 F0000000 		.4byte	0xf0
 683 04a9 14       		.byte	0x14
 684 04aa 02       		.uleb128 0x2
ARM GAS  C:\Users\DEVELO~1\AppData\Local\Temp\ccdWOHHf.s 			page 13


 685 04ab E1020000 		.4byte	.LASF84
 686 04af 33       		.byte	0x33
 687 04b0 F0000000 		.4byte	0xf0
 688 04b4 18       		.byte	0x18
 689 04b5 02       		.uleb128 0x2
 690 04b6 BD030000 		.4byte	.LASF85
 691 04ba 34       		.byte	0x34
 692 04bb F0000000 		.4byte	0xf0
 693 04bf 1C       		.byte	0x1c
 694 04c0 00       		.byte	0
 695 04c1 05       		.uleb128 0x5
 696 04c2 0A040000 		.4byte	.LASF86
 697 04c6 09       		.byte	0x9
 698 04c7 35       		.byte	0x35
 699 04c8 03       		.byte	0x3
 700 04c9 62040000 		.4byte	0x462
 701 04cd 11       		.uleb128 0x11
 702 04ce 3A       		.byte	0x3a
 703 04cf 2C050000 		.4byte	0x52c
 704 04d3 02       		.uleb128 0x2
 705 04d4 4E040000 		.4byte	.LASF87
 706 04d8 3B       		.byte	0x3b
 707 04d9 F0000000 		.4byte	0xf0
 708 04dd 00       		.byte	0
 709 04de 02       		.uleb128 0x2
 710 04df 20050000 		.4byte	.LASF88
 711 04e3 3D       		.byte	0x3d
 712 04e4 F0000000 		.4byte	0xf0
 713 04e8 04       		.byte	0x4
 714 04e9 02       		.uleb128 0x2
 715 04ea 6F050000 		.4byte	.LASF89
 716 04ee 3E       		.byte	0x3e
 717 04ef F0000000 		.4byte	0xf0
 718 04f3 08       		.byte	0x8
 719 04f4 02       		.uleb128 0x2
 720 04f5 68050000 		.4byte	.LASF90
 721 04f9 40       		.byte	0x40
 722 04fa F0000000 		.4byte	0xf0
 723 04fe 0C       		.byte	0xc
 724 04ff 02       		.uleb128 0x2
 725 0500 A2040000 		.4byte	.LASF91
 726 0504 41       		.byte	0x41
 727 0505 F0000000 		.4byte	0xf0
 728 0509 10       		.byte	0x10
 729 050a 02       		.uleb128 0x2
 730 050b D9020000 		.4byte	.LASF83
 731 050f 43       		.byte	0x43
 732 0510 F0000000 		.4byte	0xf0
 733 0514 14       		.byte	0x14
 734 0515 02       		.uleb128 0x2
 735 0516 86080000 		.4byte	.LASF92
 736 051a 44       		.byte	0x44
 737 051b F0000000 		.4byte	0xf0
 738 051f 18       		.byte	0x18
 739 0520 02       		.uleb128 0x2
 740 0521 19030000 		.4byte	.LASF93
 741 0525 46       		.byte	0x46
ARM GAS  C:\Users\DEVELO~1\AppData\Local\Temp\ccdWOHHf.s 			page 14


 742 0526 F0000000 		.4byte	0xf0
 743 052a 1C       		.byte	0x1c
 744 052b 00       		.byte	0
 745 052c 05       		.uleb128 0x5
 746 052d F8030000 		.4byte	.LASF94
 747 0531 09       		.byte	0x9
 748 0532 47       		.byte	0x47
 749 0533 03       		.byte	0x3
 750 0534 CD040000 		.4byte	0x4cd
 751 0538 11       		.uleb128 0x11
 752 0539 4C       		.byte	0x4c
 753 053a 97050000 		.4byte	0x597
 754 053e 02       		.uleb128 0x2
 755 053f C4070000 		.4byte	.LASF95
 756 0543 4D       		.byte	0x4d
 757 0544 F0000000 		.4byte	0xf0
 758 0548 00       		.byte	0
 759 0549 02       		.uleb128 0x2
 760 054a 20050000 		.4byte	.LASF88
 761 054e 4F       		.byte	0x4f
 762 054f F0000000 		.4byte	0xf0
 763 0553 04       		.byte	0x4
 764 0554 02       		.uleb128 0x2
 765 0555 B8000000 		.4byte	.LASF96
 766 0559 50       		.byte	0x50
 767 055a F0000000 		.4byte	0xf0
 768 055e 08       		.byte	0x8
 769 055f 02       		.uleb128 0x2
 770 0560 68050000 		.4byte	.LASF90
 771 0564 52       		.byte	0x52
 772 0565 F0000000 		.4byte	0xf0
 773 0569 0C       		.byte	0xc
 774 056a 02       		.uleb128 0x2
 775 056b 3B030000 		.4byte	.LASF97
 776 056f 53       		.byte	0x53
 777 0570 F0000000 		.4byte	0xf0
 778 0574 10       		.byte	0x10
 779 0575 02       		.uleb128 0x2
 780 0576 D9020000 		.4byte	.LASF83
 781 057a 55       		.byte	0x55
 782 057b F0000000 		.4byte	0xf0
 783 057f 14       		.byte	0x14
 784 0580 02       		.uleb128 0x2
 785 0581 E1020000 		.4byte	.LASF84
 786 0585 56       		.byte	0x56
 787 0586 F0000000 		.4byte	0xf0
 788 058a 18       		.byte	0x18
 789 058b 02       		.uleb128 0x2
 790 058c 19030000 		.4byte	.LASF93
 791 0590 57       		.byte	0x57
 792 0591 F0000000 		.4byte	0xf0
 793 0595 1C       		.byte	0x1c
 794 0596 00       		.byte	0
 795 0597 05       		.uleb128 0x5
 796 0598 6D080000 		.4byte	.LASF98
 797 059c 09       		.byte	0x9
 798 059d 58       		.byte	0x58
ARM GAS  C:\Users\DEVELO~1\AppData\Local\Temp\ccdWOHHf.s 			page 15


 799 059e 03       		.byte	0x3
 800 059f 38050000 		.4byte	0x538
 801 05a3 1B       		.uleb128 0x1b
 802 05a4 00100100 		.4byte	0x11000
 803 05a8 09       		.byte	0x9
 804 05a9 5D       		.byte	0x5d
 805 05aa 09       		.byte	0x9
 806 05ab 4D080000 		.4byte	0x84d
 807 05af 02       		.uleb128 0x2
 808 05b0 7E070000 		.4byte	.LASF99
 809 05b4 5E       		.byte	0x5e
 810 05b5 F0000000 		.4byte	0xf0
 811 05b9 00       		.byte	0
 812 05ba 02       		.uleb128 0x2
 813 05bb 65020000 		.4byte	.LASF100
 814 05bf 5F       		.byte	0x5f
 815 05c0 F0000000 		.4byte	0xf0
 816 05c4 04       		.byte	0x4
 817 05c5 02       		.uleb128 0x2
 818 05c6 54000000 		.4byte	.LASF101
 819 05ca 60       		.byte	0x60
 820 05cb F0000000 		.4byte	0xf0
 821 05cf 08       		.byte	0x8
 822 05d0 02       		.uleb128 0x2
 823 05d1 E0040000 		.4byte	.LASF102
 824 05d5 61       		.byte	0x61
 825 05d6 F0000000 		.4byte	0xf0
 826 05da 0C       		.byte	0xc
 827 05db 02       		.uleb128 0x2
 828 05dc AB030000 		.4byte	.LASF103
 829 05e0 62       		.byte	0x62
 830 05e1 F0000000 		.4byte	0xf0
 831 05e5 10       		.byte	0x10
 832 05e6 02       		.uleb128 0x2
 833 05e7 33030000 		.4byte	.LASF104
 834 05eb 63       		.byte	0x63
 835 05ec F0000000 		.4byte	0xf0
 836 05f0 14       		.byte	0x14
 837 05f1 02       		.uleb128 0x2
 838 05f2 AA020000 		.4byte	.LASF105
 839 05f6 64       		.byte	0x64
 840 05f7 F0000000 		.4byte	0xf0
 841 05fb 18       		.byte	0x18
 842 05fc 02       		.uleb128 0x2
 843 05fd 28040000 		.4byte	.LASF106
 844 0601 65       		.byte	0x65
 845 0602 F0000000 		.4byte	0xf0
 846 0606 1C       		.byte	0x1c
 847 0607 02       		.uleb128 0x2
 848 0608 4F070000 		.4byte	.LASF107
 849 060c 67       		.byte	0x67
 850 060d F0000000 		.4byte	0xf0
 851 0611 20       		.byte	0x20
 852 0612 02       		.uleb128 0x2
 853 0613 89000000 		.4byte	.LASF108
 854 0617 69       		.byte	0x69
 855 0618 F0000000 		.4byte	0xf0
ARM GAS  C:\Users\DEVELO~1\AppData\Local\Temp\ccdWOHHf.s 			page 16


 856 061c 24       		.byte	0x24
 857 061d 02       		.uleb128 0x2
 858 061e 6D010000 		.4byte	.LASF109
 859 0622 6A       		.byte	0x6a
 860 0623 F0000000 		.4byte	0xf0
 861 0627 28       		.byte	0x28
 862 0628 02       		.uleb128 0x2
 863 0629 D0080000 		.4byte	.LASF110
 864 062d 6C       		.byte	0x6c
 865 062e F0000000 		.4byte	0xf0
 866 0632 2C       		.byte	0x2c
 867 0633 02       		.uleb128 0x2
 868 0634 F5040000 		.4byte	.LASF111
 869 0638 6E       		.byte	0x6e
 870 0639 F0000000 		.4byte	0xf0
 871 063d 30       		.byte	0x30
 872 063e 02       		.uleb128 0x2
 873 063f 18050000 		.4byte	.LASF112
 874 0643 6F       		.byte	0x6f
 875 0644 F0000000 		.4byte	0xf0
 876 0648 34       		.byte	0x34
 877 0649 02       		.uleb128 0x2
 878 064a 80080000 		.4byte	.LASF113
 879 064e 70       		.byte	0x70
 880 064f F0000000 		.4byte	0xf0
 881 0653 38       		.byte	0x38
 882 0654 1C       		.uleb128 0x1c
 883 0655 43494400 		.ascii	"CID\000"
 884 0659 09       		.byte	0x9
 885 065a 71       		.byte	0x71
 886 065b 15       		.byte	0x15
 887 065c F0000000 		.4byte	0xf0
 888 0660 3C       		.byte	0x3c
 889 0661 02       		.uleb128 0x2
 890 0662 16080000 		.4byte	.LASF114
 891 0666 72       		.byte	0x72
 892 0667 5D080000 		.4byte	0x85d
 893 066b 40       		.byte	0x40
 894 066c 03       		.uleb128 0x3
 895 066d 30040000 		.4byte	.LASF115
 896 0671 73       		.byte	0x73
 897 0672 F0000000 		.4byte	0xf0
 898 0676 0001     		.2byte	0x100
 899 0678 03       		.uleb128 0x3
 900 0679 9E080000 		.4byte	.LASF116
 901 067d 75       		.byte	0x75
 902 067e 53010000 		.4byte	0x153
 903 0682 0401     		.2byte	0x104
 904 0684 03       		.uleb128 0x3
 905 0685 35060000 		.4byte	.LASF117
 906 0689 77       		.byte	0x77
 907 068a 72080000 		.4byte	0x872
 908 068e 4001     		.2byte	0x140
 909 0690 03       		.uleb128 0x3
 910 0691 77060000 		.4byte	.LASF118
 911 0695 78       		.byte	0x78
 912 0696 F0000000 		.4byte	0xf0
ARM GAS  C:\Users\DEVELO~1\AppData\Local\Temp\ccdWOHHf.s 			page 17


 913 069a 0004     		.2byte	0x400
 914 069c 03       		.uleb128 0x3
 915 069d 5A010000 		.4byte	.LASF119
 916 06a1 79       		.byte	0x79
 917 06a2 F0000000 		.4byte	0xf0
 918 06a6 0404     		.2byte	0x404
 919 06a8 03       		.uleb128 0x3
 920 06a9 B1010000 		.4byte	.LASF120
 921 06ad 7A       		.byte	0x7a
 922 06ae F0000000 		.4byte	0xf0
 923 06b2 0804     		.2byte	0x408
 924 06b4 03       		.uleb128 0x3
 925 06b5 07060000 		.4byte	.LASF121
 926 06b9 7C       		.byte	0x7c
 927 06ba F0000000 		.4byte	0xf0
 928 06be 0C04     		.2byte	0x40c
 929 06c0 03       		.uleb128 0x3
 930 06c1 F6050000 		.4byte	.LASF122
 931 06c5 7D       		.byte	0x7d
 932 06c6 F0000000 		.4byte	0xf0
 933 06ca 1004     		.2byte	0x410
 934 06cc 03       		.uleb128 0x3
 935 06cd 56060000 		.4byte	.LASF123
 936 06d1 7F       		.byte	0x7f
 937 06d2 F0000000 		.4byte	0xf0
 938 06d6 1404     		.2byte	0x414
 939 06d8 03       		.uleb128 0x3
 940 06d9 DE000000 		.4byte	.LASF124
 941 06dd 81       		.byte	0x81
 942 06de F0000000 		.4byte	0xf0
 943 06e2 1804     		.2byte	0x418
 944 06e4 03       		.uleb128 0x3
 945 06e5 BB070000 		.4byte	.LASF125
 946 06e9 83       		.byte	0x83
 947 06ea 87080000 		.4byte	0x887
 948 06ee 1C04     		.2byte	0x41c
 949 06f0 03       		.uleb128 0x3
 950 06f1 28000000 		.4byte	.LASF126
 951 06f5 84       		.byte	0x84
 952 06f6 F0000000 		.4byte	0xf0
 953 06fa 4004     		.2byte	0x440
 954 06fc 03       		.uleb128 0x3
 955 06fd 9F010000 		.4byte	.LASF127
 956 0701 86       		.byte	0x86
 957 0702 9C080000 		.4byte	0x89c
 958 0706 4404     		.2byte	0x444
 959 0708 12       		.uleb128 0x12
 960 0709 686300   		.ascii	"hc\000"
 961 070c 87       		.byte	0x87
 962 070d 18       		.byte	0x18
 963 070e A1080000 		.4byte	0x8a1
 964 0712 0005     		.2byte	0x500
 965 0714 03       		.uleb128 0x3
 966 0715 D5000000 		.4byte	.LASF128
 967 0719 88       		.byte	0x88
 968 071a C1080000 		.4byte	0x8c1
 969 071e 0007     		.2byte	0x700
ARM GAS  C:\Users\DEVELO~1\AppData\Local\Temp\ccdWOHHf.s 			page 18


 970 0720 03       		.uleb128 0x3
 971 0721 A8000000 		.4byte	.LASF129
 972 0725 89       		.byte	0x89
 973 0726 F0000000 		.4byte	0xf0
 974 072a 0008     		.2byte	0x800
 975 072c 03       		.uleb128 0x3
 976 072d 7E000000 		.4byte	.LASF130
 977 0731 8A       		.byte	0x8a
 978 0732 F0000000 		.4byte	0xf0
 979 0736 0408     		.2byte	0x804
 980 0738 03       		.uleb128 0x3
 981 0739 87010000 		.4byte	.LASF131
 982 073d 8B       		.byte	0x8b
 983 073e F0000000 		.4byte	0xf0
 984 0742 0808     		.2byte	0x808
 985 0744 03       		.uleb128 0x3
 986 0745 D9080000 		.4byte	.LASF132
 987 0749 8C       		.byte	0x8c
 988 074a F0000000 		.4byte	0xf0
 989 074e 0C08     		.2byte	0x80c
 990 0750 03       		.uleb128 0x3
 991 0751 AB040000 		.4byte	.LASF133
 992 0755 8D       		.byte	0x8d
 993 0756 F0000000 		.4byte	0xf0
 994 075a 1008     		.2byte	0x810
 995 075c 03       		.uleb128 0x3
 996 075d 4A080000 		.4byte	.LASF134
 997 0761 8F       		.byte	0x8f
 998 0762 F0000000 		.4byte	0xf0
 999 0766 1408     		.2byte	0x814
 1000 0768 03       		.uleb128 0x3
 1001 0769 77050000 		.4byte	.LASF135
 1002 076d 91       		.byte	0x91
 1003 076e F0000000 		.4byte	0xf0
 1004 0772 1808     		.2byte	0x818
 1005 0774 03       		.uleb128 0x3
 1006 0775 41000000 		.4byte	.LASF136
 1007 0779 93       		.byte	0x93
 1008 077a F0000000 		.4byte	0xf0
 1009 077e 1C08     		.2byte	0x81c
 1010 0780 03       		.uleb128 0x3
 1011 0781 A8010000 		.4byte	.LASF137
 1012 0785 95       		.byte	0x95
 1013 0786 F0000000 		.4byte	0xf0
 1014 078a 2008     		.2byte	0x820
 1015 078c 03       		.uleb128 0x3
 1016 078d C4010000 		.4byte	.LASF138
 1017 0791 96       		.byte	0x96
 1018 0792 F0000000 		.4byte	0xf0
 1019 0796 2408     		.2byte	0x824
 1020 0798 03       		.uleb128 0x3
 1021 0799 AA070000 		.4byte	.LASF139
 1022 079d 97       		.byte	0x97
 1023 079e F0000000 		.4byte	0xf0
 1024 07a2 2808     		.2byte	0x828
 1025 07a4 03       		.uleb128 0x3
 1026 07a5 DF050000 		.4byte	.LASF140
ARM GAS  C:\Users\DEVELO~1\AppData\Local\Temp\ccdWOHHf.s 			page 19


 1027 07a9 99       		.byte	0x99
 1028 07aa F0000000 		.4byte	0xf0
 1029 07ae 2C08     		.2byte	0x82c
 1030 07b0 03       		.uleb128 0x3
 1031 07b1 C1020000 		.4byte	.LASF141
 1032 07b5 9B       		.byte	0x9b
 1033 07b6 F0000000 		.4byte	0xf0
 1034 07ba 3008     		.2byte	0x830
 1035 07bc 03       		.uleb128 0x3
 1036 07bd 2D000000 		.4byte	.LASF142
 1037 07c1 9C       		.byte	0x9c
 1038 07c2 F0000000 		.4byte	0xf0
 1039 07c6 3408     		.2byte	0x834
 1040 07c8 03       		.uleb128 0x3
 1041 07c9 F5020000 		.4byte	.LASF143
 1042 07cd 9E       		.byte	0x9e
 1043 07ce F0000000 		.4byte	0xf0
 1044 07d2 3808     		.2byte	0x838
 1045 07d4 03       		.uleb128 0x3
 1046 07d5 21030000 		.4byte	.LASF144
 1047 07d9 9F       		.byte	0x9f
 1048 07da F0000000 		.4byte	0xf0
 1049 07de 3C08     		.2byte	0x83c
 1050 07e0 03       		.uleb128 0x3
 1051 07e1 1F040000 		.4byte	.LASF145
 1052 07e5 A0       		.byte	0xa0
 1053 07e6 3E010000 		.4byte	0x13e
 1054 07ea 4008     		.2byte	0x840
 1055 07ec 03       		.uleb128 0x3
 1056 07ed 06000000 		.4byte	.LASF146
 1057 07f1 A1       		.byte	0xa1
 1058 07f2 3E010000 		.4byte	0x13e
 1059 07f6 8008     		.2byte	0x880
 1060 07f8 03       		.uleb128 0x3
 1061 07f9 75070000 		.4byte	.LASF147
 1062 07fd A2       		.byte	0xa2
 1063 07fe 3E010000 		.4byte	0x13e
 1064 0802 C008     		.2byte	0x8c0
 1065 0804 12       		.uleb128 0x12
 1066 0805 696500   		.ascii	"ie\000"
 1067 0808 A3       		.byte	0xa3
 1068 0809 15       		.byte	0x15
 1069 080a C6080000 		.4byte	0x8c6
 1070 080e 0009     		.2byte	0x900
 1071 0810 12       		.uleb128 0x12
 1072 0811 6F6500   		.ascii	"oe\000"
 1073 0814 A4       		.byte	0xa4
 1074 0815 16       		.byte	0x16
 1075 0816 D6080000 		.4byte	0x8d6
 1076 081a 000B     		.2byte	0xb00
 1077 081c 03       		.uleb128 0x3
 1078 081d 87060000 		.4byte	.LASF148
 1079 0821 A5       		.byte	0xa5
 1080 0822 C1080000 		.4byte	0x8c1
 1081 0826 000D     		.2byte	0xd00
 1082 0828 03       		.uleb128 0x3
 1083 0829 B9020000 		.4byte	.LASF149
ARM GAS  C:\Users\DEVELO~1\AppData\Local\Temp\ccdWOHHf.s 			page 20


 1084 082d A6       		.byte	0xa6
 1085 082e F0000000 		.4byte	0xf0
 1086 0832 000E     		.2byte	0xe00
 1087 0834 03       		.uleb128 0x3
 1088 0835 0F050000 		.4byte	.LASF150
 1089 0839 A8       		.byte	0xa8
 1090 083a F6080000 		.4byte	0x8f6
 1091 083e 040E     		.2byte	0xe04
 1092 0840 03       		.uleb128 0x3
 1093 0841 67030000 		.4byte	.LASF151
 1094 0845 A9       		.byte	0xa9
 1095 0846 12090000 		.4byte	0x912
 1096 084a 0010     		.2byte	0x1000
 1097 084c 00       		.byte	0
 1098 084d 07       		.uleb128 0x7
 1099 084e F0000000 		.4byte	0xf0
 1100 0852 5D080000 		.4byte	0x85d
 1101 0856 08       		.uleb128 0x8
 1102 0857 39000000 		.4byte	0x39
 1103 085b 2F       		.byte	0x2f
 1104 085c 00       		.byte	0
 1105 085d 0C       		.uleb128 0xc
 1106 085e 4D080000 		.4byte	0x84d
 1107 0862 07       		.uleb128 0x7
 1108 0863 F0000000 		.4byte	0xf0
 1109 0867 72080000 		.4byte	0x872
 1110 086b 08       		.uleb128 0x8
 1111 086c 39000000 		.4byte	0x39
 1112 0870 AF       		.byte	0xaf
 1113 0871 00       		.byte	0
 1114 0872 0C       		.uleb128 0xc
 1115 0873 62080000 		.4byte	0x862
 1116 0877 07       		.uleb128 0x7
 1117 0878 F0000000 		.4byte	0xf0
 1118 087c 87080000 		.4byte	0x887
 1119 0880 08       		.uleb128 0x8
 1120 0881 39000000 		.4byte	0x39
 1121 0885 08       		.byte	0x8
 1122 0886 00       		.byte	0
 1123 0887 0C       		.uleb128 0xc
 1124 0888 77080000 		.4byte	0x877
 1125 088c 07       		.uleb128 0x7
 1126 088d F0000000 		.4byte	0xf0
 1127 0891 9C080000 		.4byte	0x89c
 1128 0895 08       		.uleb128 0x8
 1129 0896 39000000 		.4byte	0x39
 1130 089a 2E       		.byte	0x2e
 1131 089b 00       		.byte	0
 1132 089c 0C       		.uleb128 0xc
 1133 089d 8C080000 		.4byte	0x88c
 1134 08a1 07       		.uleb128 0x7
 1135 08a2 C1040000 		.4byte	0x4c1
 1136 08a6 B1080000 		.4byte	0x8b1
 1137 08aa 08       		.uleb128 0x8
 1138 08ab 39000000 		.4byte	0x39
 1139 08af 0F       		.byte	0xf
 1140 08b0 00       		.byte	0
ARM GAS  C:\Users\DEVELO~1\AppData\Local\Temp\ccdWOHHf.s 			page 21


 1141 08b1 07       		.uleb128 0x7
 1142 08b2 F0000000 		.4byte	0xf0
 1143 08b6 C1080000 		.4byte	0x8c1
 1144 08ba 08       		.uleb128 0x8
 1145 08bb 39000000 		.4byte	0x39
 1146 08bf 3F       		.byte	0x3f
 1147 08c0 00       		.byte	0
 1148 08c1 0C       		.uleb128 0xc
 1149 08c2 B1080000 		.4byte	0x8b1
 1150 08c6 07       		.uleb128 0x7
 1151 08c7 2C050000 		.4byte	0x52c
 1152 08cb D6080000 		.4byte	0x8d6
 1153 08cf 08       		.uleb128 0x8
 1154 08d0 39000000 		.4byte	0x39
 1155 08d4 0F       		.byte	0xf
 1156 08d5 00       		.byte	0
 1157 08d6 07       		.uleb128 0x7
 1158 08d7 97050000 		.4byte	0x597
 1159 08db E6080000 		.4byte	0x8e6
 1160 08df 08       		.uleb128 0x8
 1161 08e0 39000000 		.4byte	0x39
 1162 08e4 0F       		.byte	0xf
 1163 08e5 00       		.byte	0
 1164 08e6 07       		.uleb128 0x7
 1165 08e7 F0000000 		.4byte	0xf0
 1166 08eb F6080000 		.4byte	0x8f6
 1167 08ef 08       		.uleb128 0x8
 1168 08f0 39000000 		.4byte	0x39
 1169 08f4 7E       		.byte	0x7e
 1170 08f5 00       		.byte	0
 1171 08f6 0C       		.uleb128 0xc
 1172 08f7 E6080000 		.4byte	0x8e6
 1173 08fb 07       		.uleb128 0x7
 1174 08fc F0000000 		.4byte	0xf0
 1175 0900 12090000 		.4byte	0x912
 1176 0904 08       		.uleb128 0x8
 1177 0905 39000000 		.4byte	0x39
 1178 0909 0F       		.byte	0xf
 1179 090a 1D       		.uleb128 0x1d
 1180 090b 39000000 		.4byte	0x39
 1181 090f FF03     		.2byte	0x3ff
 1182 0911 00       		.byte	0
 1183 0912 0C       		.uleb128 0xc
 1184 0913 FB080000 		.4byte	0x8fb
 1185 0917 05       		.uleb128 0x5
 1186 0918 2E010000 		.4byte	.LASF152
 1187 091c 09       		.byte	0x9
 1188 091d AA       		.byte	0xaa
 1189 091e 03       		.byte	0x3
 1190 091f A3050000 		.4byte	0x5a3
 1191 0923 0D       		.uleb128 0xd
 1192 0924 0C       		.byte	0xc
 1193 0925 08       		.byte	0x8
 1194 0926 0401     		.2byte	0x104
 1195 0928 57090000 		.4byte	0x957
 1196 092c 01       		.uleb128 0x1
 1197 092d 8F050000 		.4byte	.LASF153
ARM GAS  C:\Users\DEVELO~1\AppData\Local\Temp\ccdWOHHf.s 			page 22


 1198 0931 08       		.byte	0x8
 1199 0932 0501     		.2byte	0x105
 1200 0934 21       		.byte	0x21
 1201 0935 E4000000 		.4byte	0xe4
 1202 0939 00       		.byte	0
 1203 093a 01       		.uleb128 0x1
 1204 093b 0F010000 		.4byte	.LASF154
 1205 093f 08       		.byte	0x8
 1206 0940 0601     		.2byte	0x106
 1207 0942 21       		.byte	0x21
 1208 0943 E4000000 		.4byte	0xe4
 1209 0947 04       		.byte	0x4
 1210 0948 01       		.uleb128 0x1
 1211 0949 40040000 		.4byte	.LASF155
 1212 094d 08       		.byte	0x8
 1213 094e 0701     		.2byte	0x107
 1214 0950 21       		.byte	0x21
 1215 0951 E4000000 		.4byte	0xe4
 1216 0955 08       		.byte	0x8
 1217 0956 00       		.byte	0
 1218 0957 06       		.uleb128 0x6
 1219 0958 44030000 		.4byte	.LASF156
 1220 095c 08       		.byte	0x8
 1221 095d 0801     		.2byte	0x108
 1222 095f 03       		.byte	0x3
 1223 0960 23090000 		.4byte	0x923
 1224 0964 0E       		.uleb128 0xe
 1225 0965 57090000 		.4byte	0x957
 1226 0969 0D       		.uleb128 0xd
 1227 096a 10       		.byte	0x10
 1228 096b 08       		.byte	0x8
 1229 096c 0D01     		.2byte	0x10d
 1230 096e AB090000 		.4byte	0x9ab
 1231 0972 01       		.uleb128 0x1
 1232 0973 39040000 		.4byte	.LASF157
 1233 0977 08       		.byte	0x8
 1234 0978 1101     		.2byte	0x111
 1235 097a 21       		.byte	0x21
 1236 097b 2D000000 		.4byte	0x2d
 1237 097f 00       		.byte	0
 1238 0980 01       		.uleb128 0x1
 1239 0981 CC070000 		.4byte	.LASF158
 1240 0985 08       		.byte	0x8
 1241 0986 1501     		.2byte	0x115
 1242 0988 21       		.byte	0x21
 1243 0989 2D000000 		.4byte	0x2d
 1244 098d 04       		.byte	0x4
 1245 098e 01       		.uleb128 0x1
 1246 098f 9C020000 		.4byte	.LASF159
 1247 0993 08       		.byte	0x8
 1248 0994 1901     		.2byte	0x119
 1249 0996 22       		.byte	0x22
 1250 0997 77010000 		.4byte	0x177
 1251 099b 08       		.byte	0x8
 1252 099c 01       		.uleb128 0x1
 1253 099d 4B020000 		.4byte	.LASF160
 1254 09a1 08       		.byte	0x8
ARM GAS  C:\Users\DEVELO~1\AppData\Local\Temp\ccdWOHHf.s 			page 23


 1255 09a2 2401     		.2byte	0x124
 1256 09a4 21       		.byte	0x21
 1257 09a5 2D000000 		.4byte	0x2d
 1258 09a9 0C       		.byte	0xc
 1259 09aa 00       		.byte	0
 1260 09ab 06       		.uleb128 0x6
 1261 09ac 1E080000 		.4byte	.LASF161
 1262 09b0 08       		.byte	0x8
 1263 09b1 2501     		.2byte	0x125
 1264 09b3 03       		.byte	0x3
 1265 09b4 69090000 		.4byte	0x969
 1266 09b8 0D       		.uleb128 0xd
 1267 09b9 10       		.byte	0x10
 1268 09ba 08       		.byte	0x8
 1269 09bb 2A01     		.2byte	0x12a
 1270 09bd FA090000 		.4byte	0x9fa
 1271 09c1 01       		.uleb128 0x1
 1272 09c2 43080000 		.4byte	.LASF162
 1273 09c6 08       		.byte	0x8
 1274 09c7 2E01     		.2byte	0x12e
 1275 09c9 21       		.byte	0x21
 1276 09ca 2D000000 		.4byte	0x2d
 1277 09ce 00       		.byte	0
 1278 09cf 01       		.uleb128 0x1
 1279 09d0 00000000 		.4byte	.LASF163
 1280 09d4 08       		.byte	0x8
 1281 09d5 3201     		.2byte	0x132
 1282 09d7 21       		.byte	0x21
 1283 09d8 2D000000 		.4byte	0x2d
 1284 09dc 04       		.byte	0x4
 1285 09dd 01       		.uleb128 0x1
 1286 09de 83000000 		.4byte	.LASF164
 1287 09e2 08       		.byte	0x8
 1288 09e3 3601     		.2byte	0x136
 1289 09e5 22       		.byte	0x22
 1290 09e6 66010000 		.4byte	0x166
 1291 09ea 08       		.byte	0x8
 1292 09eb 01       		.uleb128 0x1
 1293 09ec 4B020000 		.4byte	.LASF160
 1294 09f0 08       		.byte	0x8
 1295 09f1 4101     		.2byte	0x141
 1296 09f3 21       		.byte	0x21
 1297 09f4 2D000000 		.4byte	0x2d
 1298 09f8 0C       		.byte	0xc
 1299 09f9 00       		.byte	0
 1300 09fa 06       		.uleb128 0x6
 1301 09fb 82040000 		.4byte	.LASF165
 1302 09ff 08       		.byte	0x8
 1303 0a00 4201     		.2byte	0x142
 1304 0a02 03       		.byte	0x3
 1305 0a03 B8090000 		.4byte	0x9b8
 1306 0a07 0D       		.uleb128 0xd
 1307 0a08 24       		.byte	0x24
 1308 0a09 08       		.byte	0x8
 1309 0a0a 4801     		.2byte	0x148
 1310 0a0c 9D0A0000 		.4byte	0xa9d
 1311 0a10 01       		.uleb128 0x1
ARM GAS  C:\Users\DEVELO~1\AppData\Local\Temp\ccdWOHHf.s 			page 24


 1312 0a11 B3070000 		.4byte	.LASF166
 1313 0a15 08       		.byte	0x8
 1314 0a16 4C01     		.2byte	0x14c
 1315 0a18 21       		.byte	0x21
 1316 0a19 E4000000 		.4byte	0xe4
 1317 0a1d 00       		.byte	0
 1318 0a1e 01       		.uleb128 0x1
 1319 0a1f D7040000 		.4byte	.LASF167
 1320 0a23 08       		.byte	0x8
 1321 0a24 5701     		.2byte	0x157
 1322 0a26 21       		.byte	0x21
 1323 0a27 C8030000 		.4byte	0x3c8
 1324 0a2b 04       		.byte	0x4
 1325 0a2c 01       		.uleb128 0x1
 1326 0a2d 0B030000 		.4byte	.LASF168
 1327 0a31 08       		.byte	0x8
 1328 0a32 5C01     		.2byte	0x15c
 1329 0a34 21       		.byte	0x21
 1330 0a35 C8030000 		.4byte	0x3c8
 1331 0a39 08       		.byte	0x8
 1332 0a3a 01       		.uleb128 0x1
 1333 0a3b 1A000000 		.4byte	.LASF169
 1334 0a3f 08       		.byte	0x8
 1335 0a40 6101     		.2byte	0x161
 1336 0a42 21       		.byte	0x21
 1337 0a43 C8030000 		.4byte	0x3c8
 1338 0a47 0C       		.byte	0xc
 1339 0a48 01       		.uleb128 0x1
 1340 0a49 27050000 		.4byte	.LASF170
 1341 0a4d 08       		.byte	0x8
 1342 0a4e 6601     		.2byte	0x166
 1343 0a50 21       		.byte	0x21
 1344 0a51 CC000000 		.4byte	0xcc
 1345 0a55 10       		.byte	0x10
 1346 0a56 01       		.uleb128 0x1
 1347 0a57 F3070000 		.4byte	.LASF171
 1348 0a5b 08       		.byte	0x8
 1349 0a5c 6B01     		.2byte	0x16b
 1350 0a5e 21       		.byte	0x21
 1351 0a5f CC000000 		.4byte	0xcc
 1352 0a63 12       		.byte	0x12
 1353 0a64 01       		.uleb128 0x1
 1354 0a65 FE050000 		.4byte	.LASF172
 1355 0a69 08       		.byte	0x8
 1356 0a6a 7101     		.2byte	0x171
 1357 0a6c 22       		.byte	0x22
 1358 0a6d 9D0A0000 		.4byte	0xa9d
 1359 0a71 14       		.byte	0x14
 1360 0a72 01       		.uleb128 0x1
 1361 0a73 5E040000 		.4byte	.LASF173
 1362 0a77 08       		.byte	0x8
 1363 0a78 7701     		.2byte	0x177
 1364 0a7a 22       		.byte	0x22
 1365 0a7b A20A0000 		.4byte	0xaa2
 1366 0a7f 18       		.byte	0x18
 1367 0a80 01       		.uleb128 0x1
 1368 0a81 C2080000 		.4byte	.LASF174
ARM GAS  C:\Users\DEVELO~1\AppData\Local\Temp\ccdWOHHf.s 			page 25


 1369 0a85 08       		.byte	0x8
 1370 0a86 7E01     		.2byte	0x17e
 1371 0a88 21       		.byte	0x21
 1372 0a89 CC000000 		.4byte	0xcc
 1373 0a8d 1C       		.byte	0x1c
 1374 0a8e 01       		.uleb128 0x1
 1375 0a8f 68040000 		.4byte	.LASF175
 1376 0a93 08       		.byte	0x8
 1377 0a94 8401     		.2byte	0x184
 1378 0a96 22       		.byte	0x22
 1379 0a97 66010000 		.4byte	0x166
 1380 0a9b 20       		.byte	0x20
 1381 0a9c 00       		.byte	0
 1382 0a9d 09       		.uleb128 0x9
 1383 0a9e AB090000 		.4byte	0x9ab
 1384 0aa2 09       		.uleb128 0x9
 1385 0aa3 FA090000 		.4byte	0x9fa
 1386 0aa7 06       		.uleb128 0x6
 1387 0aa8 BA040000 		.4byte	.LASF176
 1388 0aac 08       		.byte	0x8
 1389 0aad 8501     		.2byte	0x185
 1390 0aaf 03       		.byte	0x3
 1391 0ab0 070A0000 		.4byte	0xa07
 1392 0ab4 0E       		.uleb128 0xe
 1393 0ab5 A70A0000 		.4byte	0xaa7
 1394 0ab9 0D       		.uleb128 0xd
 1395 0aba 10       		.byte	0x10
 1396 0abb 08       		.byte	0x8
 1397 0abc 8A01     		.2byte	0x18a
 1398 0abe FB0A0000 		.4byte	0xafb
 1399 0ac2 01       		.uleb128 0x1
 1400 0ac3 2A030000 		.4byte	.LASF177
 1401 0ac7 08       		.byte	0x8
 1402 0ac8 8F01     		.2byte	0x18f
 1403 0aca 21       		.byte	0x21
 1404 0acb EA030000 		.4byte	0x3ea
 1405 0acf 00       		.byte	0
 1406 0ad0 01       		.uleb128 0x1
 1407 0ad1 AE050000 		.4byte	.LASF178
 1408 0ad5 08       		.byte	0x8
 1409 0ad6 9401     		.2byte	0x194
 1410 0ad8 21       		.byte	0x21
 1411 0ad9 2D040000 		.4byte	0x42d
 1412 0add 04       		.byte	0x4
 1413 0ade 01       		.uleb128 0x1
 1414 0adf D3030000 		.4byte	.LASF179
 1415 0ae3 08       		.byte	0x8
 1416 0ae4 9A01     		.2byte	0x19a
 1417 0ae6 21       		.byte	0x21
 1418 0ae7 0C040000 		.4byte	0x40c
 1419 0aeb 08       		.byte	0x8
 1420 0aec 01       		.uleb128 0x1
 1421 0aed B3040000 		.4byte	.LASF180
 1422 0af1 08       		.byte	0x8
 1423 0af2 9E01     		.2byte	0x19e
 1424 0af4 21       		.byte	0x21
 1425 0af5 A6030000 		.4byte	0x3a6
ARM GAS  C:\Users\DEVELO~1\AppData\Local\Temp\ccdWOHHf.s 			page 26


 1426 0af9 0C       		.byte	0xc
 1427 0afa 00       		.byte	0
 1428 0afb 06       		.uleb128 0x6
 1429 0afc 2B060000 		.4byte	.LASF181
 1430 0b00 08       		.byte	0x8
 1431 0b01 A001     		.2byte	0x1a0
 1432 0b03 03       		.byte	0x3
 1433 0b04 B90A0000 		.4byte	0xab9
 1434 0b08 0E       		.uleb128 0xe
 1435 0b09 FB0A0000 		.4byte	0xafb
 1436 0b0d 09       		.uleb128 0x9
 1437 0b0e 080B0000 		.4byte	0xb08
 1438 0b12 07       		.uleb128 0x7
 1439 0b13 220B0000 		.4byte	0xb22
 1440 0b17 220B0000 		.4byte	0xb22
 1441 0b1b 08       		.uleb128 0x8
 1442 0b1c 39000000 		.4byte	0x39
 1443 0b20 08       		.byte	0x8
 1444 0b21 00       		.byte	0
 1445 0b22 09       		.uleb128 0x9
 1446 0b23 B40A0000 		.4byte	0xab4
 1447 0b27 07       		.uleb128 0x7
 1448 0b28 2C010000 		.4byte	0x12c
 1449 0b2c 370B0000 		.4byte	0xb37
 1450 0b30 08       		.uleb128 0x8
 1451 0b31 39000000 		.4byte	0x39
 1452 0b35 07       		.byte	0x7
 1453 0b36 00       		.byte	0
 1454 0b37 07       		.uleb128 0x7
 1455 0b38 BB000000 		.4byte	0xbb
 1456 0b3c 470B0000 		.4byte	0xb47
 1457 0b40 08       		.uleb128 0x8
 1458 0b41 39000000 		.4byte	0x39
 1459 0b45 07       		.byte	0x7
 1460 0b46 00       		.byte	0
 1461 0b47 09       		.uleb128 0x9
 1462 0b48 17090000 		.4byte	0x917
 1463 0b4c 09       		.uleb128 0x9
 1464 0b4d 64090000 		.4byte	0x964
 1465 0b51 1E       		.uleb128 0x1e
 1466 0b52 A4070000 		.4byte	.LASF182
 1467 0b56 08       		.byte	0x8
 1468 0b57 3A02     		.2byte	0x23a
 1469 0b59 12       		.byte	0x12
 1470 0b5a 7C010000 		.4byte	0x17c
 1471 0b5e 15       		.uleb128 0x15
 1472 0b5f C0050000 		.4byte	.LASF183
 1473 0b63 43       		.byte	0x43
 1474 0b64 16       		.byte	0x16
 1475 0b65 72010000 		.4byte	0x172
 1476 0b69 15       		.uleb128 0x15
 1477 0b6a 4F060000 		.4byte	.LASF184
 1478 0b6e 56       		.byte	0x56
 1479 0b6f 18       		.byte	0x18
 1480 0b70 080B0000 		.4byte	0xb08
 1481 0b74 1F       		.uleb128 0x1f
 1482 0b75 7B020000 		.4byte	.LASF188
ARM GAS  C:\Users\DEVELO~1\AppData\Local\Temp\ccdWOHHf.s 			page 27


 1483 0b79 07       		.byte	0x7
 1484 0b7a 5F02     		.2byte	0x25f
 1485 0b7c 09       		.byte	0x9
 1486 0b7d 01010000 		.4byte	0x101
 1487 0b81 900B0000 		.4byte	0xb90
 1488 0b85 0B       		.uleb128 0xb
 1489 0b86 C3030000 		.4byte	0x3c3
 1490 0b8a 0B       		.uleb128 0xb
 1491 0b8b 0D0B0000 		.4byte	0xb0d
 1492 0b8f 00       		.byte	0
 1493 0b90 20       		.uleb128 0x20
 1494 0b91 0F000000 		.4byte	.LASF189
 1495 0b95 0B       		.byte	0xb
 1496 0b96 4201     		.2byte	0x142
 1497 0b98 08       		.byte	0x8
 1498 0b99 A30B0000 		.4byte	0xba3
 1499 0b9d 0B       		.uleb128 0xb
 1500 0b9e 14010000 		.4byte	0x114
 1501 0ba2 00       		.byte	0
 1502 0ba3 21       		.uleb128 0x21
 1503 0ba4 9C050000 		.4byte	.LASF190
 1504 0ba8 01       		.byte	0x1
 1505 0ba9 52       		.byte	0x52
 1506 0baa 06       		.byte	0x6
 1507 0bab 6B010000 		.4byte	0x16b
 1508 0baf 00000000 		.4byte	.LFB432
 1509 0bb3 0C000000 		.4byte	.LFE432-.LFB432
 1510 0bb7 01       		.uleb128 0x1
 1511 0bb8 9C       		.byte	0x9c
 1512 0bb9 22       		.uleb128 0x22
 1513 0bba 52080000 		.4byte	.LASF191
 1514 0bbe 01       		.byte	0x1
 1515 0bbf 30       		.byte	0x30
 1516 0bc0 06       		.byte	0x6
 1517 0bc1 00000000 		.4byte	.LFB431
 1518 0bc5 40000000 		.4byte	.LFE431-.LFB431
 1519 0bc9 01       		.uleb128 0x1
 1520 0bca 9C       		.byte	0x9c
 1521 0bcb 23       		.uleb128 0x23
 1522 0bcc 1C000000 		.4byte	.LVL0
 1523 0bd0 900B0000 		.4byte	0xb90
 1524 0bd4 E00B0000 		.4byte	0xbe0
 1525 0bd8 16       		.uleb128 0x16
 1526 0bd9 01       		.uleb128 0x1
 1527 0bda 50       		.byte	0x50
 1528 0bdb 03       		.uleb128 0x3
 1529 0bdc 0A       		.byte	0xa
 1530 0bdd 983A     		.2byte	0x3a98
 1531 0bdf 00       		.byte	0
 1532 0be0 24       		.uleb128 0x24
 1533 0be1 24000000 		.4byte	.LVL1
 1534 0be5 740B0000 		.4byte	0xb74
 1535 0be9 16       		.uleb128 0x16
 1536 0bea 01       		.uleb128 0x1
 1537 0beb 50       		.byte	0x50
 1538 0bec 02       		.uleb128 0x2
 1539 0bed 74       		.byte	0x74
ARM GAS  C:\Users\DEVELO~1\AppData\Local\Temp\ccdWOHHf.s 			page 28


 1540 0bee 00       		.sleb128 0
 1541 0bef 00       		.byte	0
 1542 0bf0 00       		.byte	0
 1543 0bf1 00       		.byte	0
 1544              		.section	.debug_abbrev,"",%progbits
 1545              	.Ldebug_abbrev0:
 1546 0000 01       		.uleb128 0x1
 1547 0001 0D       		.uleb128 0xd
 1548 0002 00       		.byte	0
 1549 0003 03       		.uleb128 0x3
 1550 0004 0E       		.uleb128 0xe
 1551 0005 3A       		.uleb128 0x3a
 1552 0006 0B       		.uleb128 0xb
 1553 0007 3B       		.uleb128 0x3b
 1554 0008 05       		.uleb128 0x5
 1555 0009 39       		.uleb128 0x39
 1556 000a 0B       		.uleb128 0xb
 1557 000b 49       		.uleb128 0x49
 1558 000c 13       		.uleb128 0x13
 1559 000d 38       		.uleb128 0x38
 1560 000e 0B       		.uleb128 0xb
 1561 000f 00       		.byte	0
 1562 0010 00       		.byte	0
 1563 0011 02       		.uleb128 0x2
 1564 0012 0D       		.uleb128 0xd
 1565 0013 00       		.byte	0
 1566 0014 03       		.uleb128 0x3
 1567 0015 0E       		.uleb128 0xe
 1568 0016 3A       		.uleb128 0x3a
 1569 0017 21       		.uleb128 0x21
 1570 0018 09       		.sleb128 9
 1571 0019 3B       		.uleb128 0x3b
 1572 001a 0B       		.uleb128 0xb
 1573 001b 39       		.uleb128 0x39
 1574 001c 21       		.uleb128 0x21
 1575 001d 15       		.sleb128 21
 1576 001e 49       		.uleb128 0x49
 1577 001f 13       		.uleb128 0x13
 1578 0020 38       		.uleb128 0x38
 1579 0021 0B       		.uleb128 0xb
 1580 0022 00       		.byte	0
 1581 0023 00       		.byte	0
 1582 0024 03       		.uleb128 0x3
 1583 0025 0D       		.uleb128 0xd
 1584 0026 00       		.byte	0
 1585 0027 03       		.uleb128 0x3
 1586 0028 0E       		.uleb128 0xe
 1587 0029 3A       		.uleb128 0x3a
 1588 002a 21       		.uleb128 0x21
 1589 002b 09       		.sleb128 9
 1590 002c 3B       		.uleb128 0x3b
 1591 002d 0B       		.uleb128 0xb
 1592 002e 39       		.uleb128 0x39
 1593 002f 21       		.uleb128 0x21
 1594 0030 15       		.sleb128 21
 1595 0031 49       		.uleb128 0x49
 1596 0032 13       		.uleb128 0x13
ARM GAS  C:\Users\DEVELO~1\AppData\Local\Temp\ccdWOHHf.s 			page 29


 1597 0033 38       		.uleb128 0x38
 1598 0034 05       		.uleb128 0x5
 1599 0035 00       		.byte	0
 1600 0036 00       		.byte	0
 1601 0037 04       		.uleb128 0x4
 1602 0038 28       		.uleb128 0x28
 1603 0039 00       		.byte	0
 1604 003a 03       		.uleb128 0x3
 1605 003b 0E       		.uleb128 0xe
 1606 003c 1C       		.uleb128 0x1c
 1607 003d 0B       		.uleb128 0xb
 1608 003e 00       		.byte	0
 1609 003f 00       		.byte	0
 1610 0040 05       		.uleb128 0x5
 1611 0041 16       		.uleb128 0x16
 1612 0042 00       		.byte	0
 1613 0043 03       		.uleb128 0x3
 1614 0044 0E       		.uleb128 0xe
 1615 0045 3A       		.uleb128 0x3a
 1616 0046 0B       		.uleb128 0xb
 1617 0047 3B       		.uleb128 0x3b
 1618 0048 0B       		.uleb128 0xb
 1619 0049 39       		.uleb128 0x39
 1620 004a 0B       		.uleb128 0xb
 1621 004b 49       		.uleb128 0x49
 1622 004c 13       		.uleb128 0x13
 1623 004d 00       		.byte	0
 1624 004e 00       		.byte	0
 1625 004f 06       		.uleb128 0x6
 1626 0050 16       		.uleb128 0x16
 1627 0051 00       		.byte	0
 1628 0052 03       		.uleb128 0x3
 1629 0053 0E       		.uleb128 0xe
 1630 0054 3A       		.uleb128 0x3a
 1631 0055 0B       		.uleb128 0xb
 1632 0056 3B       		.uleb128 0x3b
 1633 0057 05       		.uleb128 0x5
 1634 0058 39       		.uleb128 0x39
 1635 0059 0B       		.uleb128 0xb
 1636 005a 49       		.uleb128 0x49
 1637 005b 13       		.uleb128 0x13
 1638 005c 00       		.byte	0
 1639 005d 00       		.byte	0
 1640 005e 07       		.uleb128 0x7
 1641 005f 01       		.uleb128 0x1
 1642 0060 01       		.byte	0x1
 1643 0061 49       		.uleb128 0x49
 1644 0062 13       		.uleb128 0x13
 1645 0063 01       		.uleb128 0x1
 1646 0064 13       		.uleb128 0x13
 1647 0065 00       		.byte	0
 1648 0066 00       		.byte	0
 1649 0067 08       		.uleb128 0x8
 1650 0068 21       		.uleb128 0x21
 1651 0069 00       		.byte	0
 1652 006a 49       		.uleb128 0x49
 1653 006b 13       		.uleb128 0x13
ARM GAS  C:\Users\DEVELO~1\AppData\Local\Temp\ccdWOHHf.s 			page 30


 1654 006c 2F       		.uleb128 0x2f
 1655 006d 0B       		.uleb128 0xb
 1656 006e 00       		.byte	0
 1657 006f 00       		.byte	0
 1658 0070 09       		.uleb128 0x9
 1659 0071 0F       		.uleb128 0xf
 1660 0072 00       		.byte	0
 1661 0073 0B       		.uleb128 0xb
 1662 0074 21       		.uleb128 0x21
 1663 0075 04       		.sleb128 4
 1664 0076 49       		.uleb128 0x49
 1665 0077 13       		.uleb128 0x13
 1666 0078 00       		.byte	0
 1667 0079 00       		.byte	0
 1668 007a 0A       		.uleb128 0xa
 1669 007b 24       		.uleb128 0x24
 1670 007c 00       		.byte	0
 1671 007d 0B       		.uleb128 0xb
 1672 007e 0B       		.uleb128 0xb
 1673 007f 3E       		.uleb128 0x3e
 1674 0080 0B       		.uleb128 0xb
 1675 0081 03       		.uleb128 0x3
 1676 0082 0E       		.uleb128 0xe
 1677 0083 00       		.byte	0
 1678 0084 00       		.byte	0
 1679 0085 0B       		.uleb128 0xb
 1680 0086 05       		.uleb128 0x5
 1681 0087 00       		.byte	0
 1682 0088 49       		.uleb128 0x49
 1683 0089 13       		.uleb128 0x13
 1684 008a 00       		.byte	0
 1685 008b 00       		.byte	0
 1686 008c 0C       		.uleb128 0xc
 1687 008d 35       		.uleb128 0x35
 1688 008e 00       		.byte	0
 1689 008f 49       		.uleb128 0x49
 1690 0090 13       		.uleb128 0x13
 1691 0091 00       		.byte	0
 1692 0092 00       		.byte	0
 1693 0093 0D       		.uleb128 0xd
 1694 0094 13       		.uleb128 0x13
 1695 0095 01       		.byte	0x1
 1696 0096 0B       		.uleb128 0xb
 1697 0097 0B       		.uleb128 0xb
 1698 0098 3A       		.uleb128 0x3a
 1699 0099 0B       		.uleb128 0xb
 1700 009a 3B       		.uleb128 0x3b
 1701 009b 05       		.uleb128 0x5
 1702 009c 39       		.uleb128 0x39
 1703 009d 21       		.uleb128 0x21
 1704 009e 09       		.sleb128 9
 1705 009f 01       		.uleb128 0x1
 1706 00a0 13       		.uleb128 0x13
 1707 00a1 00       		.byte	0
 1708 00a2 00       		.byte	0
 1709 00a3 0E       		.uleb128 0xe
 1710 00a4 26       		.uleb128 0x26
ARM GAS  C:\Users\DEVELO~1\AppData\Local\Temp\ccdWOHHf.s 			page 31


 1711 00a5 00       		.byte	0
 1712 00a6 49       		.uleb128 0x49
 1713 00a7 13       		.uleb128 0x13
 1714 00a8 00       		.byte	0
 1715 00a9 00       		.byte	0
 1716 00aa 0F       		.uleb128 0xf
 1717 00ab 04       		.uleb128 0x4
 1718 00ac 01       		.byte	0x1
 1719 00ad 3E       		.uleb128 0x3e
 1720 00ae 21       		.uleb128 0x21
 1721 00af 07       		.sleb128 7
 1722 00b0 0B       		.uleb128 0xb
 1723 00b1 21       		.uleb128 0x21
 1724 00b2 01       		.sleb128 1
 1725 00b3 49       		.uleb128 0x49
 1726 00b4 13       		.uleb128 0x13
 1727 00b5 3A       		.uleb128 0x3a
 1728 00b6 21       		.uleb128 0x21
 1729 00b7 07       		.sleb128 7
 1730 00b8 3B       		.uleb128 0x3b
 1731 00b9 05       		.uleb128 0x5
 1732 00ba 39       		.uleb128 0x39
 1733 00bb 21       		.uleb128 0x21
 1734 00bc 0E       		.sleb128 14
 1735 00bd 01       		.uleb128 0x1
 1736 00be 13       		.uleb128 0x13
 1737 00bf 00       		.byte	0
 1738 00c0 00       		.byte	0
 1739 00c1 10       		.uleb128 0x10
 1740 00c2 15       		.uleb128 0x15
 1741 00c3 01       		.byte	0x1
 1742 00c4 27       		.uleb128 0x27
 1743 00c5 19       		.uleb128 0x19
 1744 00c6 01       		.uleb128 0x1
 1745 00c7 13       		.uleb128 0x13
 1746 00c8 00       		.byte	0
 1747 00c9 00       		.byte	0
 1748 00ca 11       		.uleb128 0x11
 1749 00cb 13       		.uleb128 0x13
 1750 00cc 01       		.byte	0x1
 1751 00cd 0B       		.uleb128 0xb
 1752 00ce 21       		.uleb128 0x21
 1753 00cf 20       		.sleb128 32
 1754 00d0 3A       		.uleb128 0x3a
 1755 00d1 21       		.uleb128 0x21
 1756 00d2 09       		.sleb128 9
 1757 00d3 3B       		.uleb128 0x3b
 1758 00d4 0B       		.uleb128 0xb
 1759 00d5 39       		.uleb128 0x39
 1760 00d6 21       		.uleb128 0x21
 1761 00d7 09       		.sleb128 9
 1762 00d8 01       		.uleb128 0x1
 1763 00d9 13       		.uleb128 0x13
 1764 00da 00       		.byte	0
 1765 00db 00       		.byte	0
 1766 00dc 12       		.uleb128 0x12
 1767 00dd 0D       		.uleb128 0xd
ARM GAS  C:\Users\DEVELO~1\AppData\Local\Temp\ccdWOHHf.s 			page 32


 1768 00de 00       		.byte	0
 1769 00df 03       		.uleb128 0x3
 1770 00e0 08       		.uleb128 0x8
 1771 00e1 3A       		.uleb128 0x3a
 1772 00e2 21       		.uleb128 0x21
 1773 00e3 09       		.sleb128 9
 1774 00e4 3B       		.uleb128 0x3b
 1775 00e5 0B       		.uleb128 0xb
 1776 00e6 39       		.uleb128 0x39
 1777 00e7 0B       		.uleb128 0xb
 1778 00e8 49       		.uleb128 0x49
 1779 00e9 13       		.uleb128 0x13
 1780 00ea 38       		.uleb128 0x38
 1781 00eb 05       		.uleb128 0x5
 1782 00ec 00       		.byte	0
 1783 00ed 00       		.byte	0
 1784 00ee 13       		.uleb128 0x13
 1785 00ef 0D       		.uleb128 0xd
 1786 00f0 00       		.byte	0
 1787 00f1 03       		.uleb128 0x3
 1788 00f2 08       		.uleb128 0x8
 1789 00f3 3A       		.uleb128 0x3a
 1790 00f4 21       		.uleb128 0x21
 1791 00f5 08       		.sleb128 8
 1792 00f6 3B       		.uleb128 0x3b
 1793 00f7 05       		.uleb128 0x5
 1794 00f8 39       		.uleb128 0x39
 1795 00f9 21       		.uleb128 0x21
 1796 00fa 22       		.sleb128 34
 1797 00fb 49       		.uleb128 0x49
 1798 00fc 13       		.uleb128 0x13
 1799 00fd 38       		.uleb128 0x38
 1800 00fe 0B       		.uleb128 0xb
 1801 00ff 00       		.byte	0
 1802 0100 00       		.byte	0
 1803 0101 14       		.uleb128 0x14
 1804 0102 15       		.uleb128 0x15
 1805 0103 01       		.byte	0x1
 1806 0104 27       		.uleb128 0x27
 1807 0105 19       		.uleb128 0x19
 1808 0106 49       		.uleb128 0x49
 1809 0107 13       		.uleb128 0x13
 1810 0108 01       		.uleb128 0x1
 1811 0109 13       		.uleb128 0x13
 1812 010a 00       		.byte	0
 1813 010b 00       		.byte	0
 1814 010c 15       		.uleb128 0x15
 1815 010d 34       		.uleb128 0x34
 1816 010e 00       		.byte	0
 1817 010f 03       		.uleb128 0x3
 1818 0110 0E       		.uleb128 0xe
 1819 0111 3A       		.uleb128 0x3a
 1820 0112 21       		.uleb128 0x21
 1821 0113 0A       		.sleb128 10
 1822 0114 3B       		.uleb128 0x3b
 1823 0115 0B       		.uleb128 0xb
 1824 0116 39       		.uleb128 0x39
ARM GAS  C:\Users\DEVELO~1\AppData\Local\Temp\ccdWOHHf.s 			page 33


 1825 0117 0B       		.uleb128 0xb
 1826 0118 49       		.uleb128 0x49
 1827 0119 13       		.uleb128 0x13
 1828 011a 3F       		.uleb128 0x3f
 1829 011b 19       		.uleb128 0x19
 1830 011c 3C       		.uleb128 0x3c
 1831 011d 19       		.uleb128 0x19
 1832 011e 00       		.byte	0
 1833 011f 00       		.byte	0
 1834 0120 16       		.uleb128 0x16
 1835 0121 49       		.uleb128 0x49
 1836 0122 00       		.byte	0
 1837 0123 02       		.uleb128 0x2
 1838 0124 18       		.uleb128 0x18
 1839 0125 7E       		.uleb128 0x7e
 1840 0126 18       		.uleb128 0x18
 1841 0127 00       		.byte	0
 1842 0128 00       		.byte	0
 1843 0129 17       		.uleb128 0x17
 1844 012a 11       		.uleb128 0x11
 1845 012b 01       		.byte	0x1
 1846 012c 25       		.uleb128 0x25
 1847 012d 0E       		.uleb128 0xe
 1848 012e 13       		.uleb128 0x13
 1849 012f 0B       		.uleb128 0xb
 1850 0130 03       		.uleb128 0x3
 1851 0131 0E       		.uleb128 0xe
 1852 0132 1B       		.uleb128 0x1b
 1853 0133 0E       		.uleb128 0xe
 1854 0134 55       		.uleb128 0x55
 1855 0135 17       		.uleb128 0x17
 1856 0136 11       		.uleb128 0x11
 1857 0137 01       		.uleb128 0x1
 1858 0138 10       		.uleb128 0x10
 1859 0139 17       		.uleb128 0x17
 1860 013a 00       		.byte	0
 1861 013b 00       		.byte	0
 1862 013c 18       		.uleb128 0x18
 1863 013d 24       		.uleb128 0x24
 1864 013e 00       		.byte	0
 1865 013f 0B       		.uleb128 0xb
 1866 0140 0B       		.uleb128 0xb
 1867 0141 3E       		.uleb128 0x3e
 1868 0142 0B       		.uleb128 0xb
 1869 0143 03       		.uleb128 0x3
 1870 0144 08       		.uleb128 0x8
 1871 0145 00       		.byte	0
 1872 0146 00       		.byte	0
 1873 0147 19       		.uleb128 0x19
 1874 0148 0F       		.uleb128 0xf
 1875 0149 00       		.byte	0
 1876 014a 0B       		.uleb128 0xb
 1877 014b 0B       		.uleb128 0xb
 1878 014c 00       		.byte	0
 1879 014d 00       		.byte	0
 1880 014e 1A       		.uleb128 0x1a
 1881 014f 13       		.uleb128 0x13
ARM GAS  C:\Users\DEVELO~1\AppData\Local\Temp\ccdWOHHf.s 			page 34


 1882 0150 01       		.byte	0x1
 1883 0151 03       		.uleb128 0x3
 1884 0152 0E       		.uleb128 0xe
 1885 0153 0B       		.uleb128 0xb
 1886 0154 0B       		.uleb128 0xb
 1887 0155 3A       		.uleb128 0x3a
 1888 0156 0B       		.uleb128 0xb
 1889 0157 3B       		.uleb128 0x3b
 1890 0158 05       		.uleb128 0x5
 1891 0159 39       		.uleb128 0x39
 1892 015a 0B       		.uleb128 0xb
 1893 015b 01       		.uleb128 0x1
 1894 015c 13       		.uleb128 0x13
 1895 015d 00       		.byte	0
 1896 015e 00       		.byte	0
 1897 015f 1B       		.uleb128 0x1b
 1898 0160 13       		.uleb128 0x13
 1899 0161 01       		.byte	0x1
 1900 0162 0B       		.uleb128 0xb
 1901 0163 06       		.uleb128 0x6
 1902 0164 3A       		.uleb128 0x3a
 1903 0165 0B       		.uleb128 0xb
 1904 0166 3B       		.uleb128 0x3b
 1905 0167 0B       		.uleb128 0xb
 1906 0168 39       		.uleb128 0x39
 1907 0169 0B       		.uleb128 0xb
 1908 016a 01       		.uleb128 0x1
 1909 016b 13       		.uleb128 0x13
 1910 016c 00       		.byte	0
 1911 016d 00       		.byte	0
 1912 016e 1C       		.uleb128 0x1c
 1913 016f 0D       		.uleb128 0xd
 1914 0170 00       		.byte	0
 1915 0171 03       		.uleb128 0x3
 1916 0172 08       		.uleb128 0x8
 1917 0173 3A       		.uleb128 0x3a
 1918 0174 0B       		.uleb128 0xb
 1919 0175 3B       		.uleb128 0x3b
 1920 0176 0B       		.uleb128 0xb
 1921 0177 39       		.uleb128 0x39
 1922 0178 0B       		.uleb128 0xb
 1923 0179 49       		.uleb128 0x49
 1924 017a 13       		.uleb128 0x13
 1925 017b 38       		.uleb128 0x38
 1926 017c 0B       		.uleb128 0xb
 1927 017d 00       		.byte	0
 1928 017e 00       		.byte	0
 1929 017f 1D       		.uleb128 0x1d
 1930 0180 21       		.uleb128 0x21
 1931 0181 00       		.byte	0
 1932 0182 49       		.uleb128 0x49
 1933 0183 13       		.uleb128 0x13
 1934 0184 2F       		.uleb128 0x2f
 1935 0185 05       		.uleb128 0x5
 1936 0186 00       		.byte	0
 1937 0187 00       		.byte	0
 1938 0188 1E       		.uleb128 0x1e
ARM GAS  C:\Users\DEVELO~1\AppData\Local\Temp\ccdWOHHf.s 			page 35


 1939 0189 34       		.uleb128 0x34
 1940 018a 00       		.byte	0
 1941 018b 03       		.uleb128 0x3
 1942 018c 0E       		.uleb128 0xe
 1943 018d 3A       		.uleb128 0x3a
 1944 018e 0B       		.uleb128 0xb
 1945 018f 3B       		.uleb128 0x3b
 1946 0190 05       		.uleb128 0x5
 1947 0191 39       		.uleb128 0x39
 1948 0192 0B       		.uleb128 0xb
 1949 0193 49       		.uleb128 0x49
 1950 0194 13       		.uleb128 0x13
 1951 0195 3F       		.uleb128 0x3f
 1952 0196 19       		.uleb128 0x19
 1953 0197 3C       		.uleb128 0x3c
 1954 0198 19       		.uleb128 0x19
 1955 0199 00       		.byte	0
 1956 019a 00       		.byte	0
 1957 019b 1F       		.uleb128 0x1f
 1958 019c 2E       		.uleb128 0x2e
 1959 019d 01       		.byte	0x1
 1960 019e 3F       		.uleb128 0x3f
 1961 019f 19       		.uleb128 0x19
 1962 01a0 03       		.uleb128 0x3
 1963 01a1 0E       		.uleb128 0xe
 1964 01a2 3A       		.uleb128 0x3a
 1965 01a3 0B       		.uleb128 0xb
 1966 01a4 3B       		.uleb128 0x3b
 1967 01a5 05       		.uleb128 0x5
 1968 01a6 39       		.uleb128 0x39
 1969 01a7 0B       		.uleb128 0xb
 1970 01a8 27       		.uleb128 0x27
 1971 01a9 19       		.uleb128 0x19
 1972 01aa 49       		.uleb128 0x49
 1973 01ab 13       		.uleb128 0x13
 1974 01ac 3C       		.uleb128 0x3c
 1975 01ad 19       		.uleb128 0x19
 1976 01ae 01       		.uleb128 0x1
 1977 01af 13       		.uleb128 0x13
 1978 01b0 00       		.byte	0
 1979 01b1 00       		.byte	0
 1980 01b2 20       		.uleb128 0x20
 1981 01b3 2E       		.uleb128 0x2e
 1982 01b4 01       		.byte	0x1
 1983 01b5 3F       		.uleb128 0x3f
 1984 01b6 19       		.uleb128 0x19
 1985 01b7 03       		.uleb128 0x3
 1986 01b8 0E       		.uleb128 0xe
 1987 01b9 3A       		.uleb128 0x3a
 1988 01ba 0B       		.uleb128 0xb
 1989 01bb 3B       		.uleb128 0x3b
 1990 01bc 05       		.uleb128 0x5
 1991 01bd 39       		.uleb128 0x39
 1992 01be 0B       		.uleb128 0xb
 1993 01bf 27       		.uleb128 0x27
 1994 01c0 19       		.uleb128 0x19
 1995 01c1 3C       		.uleb128 0x3c
ARM GAS  C:\Users\DEVELO~1\AppData\Local\Temp\ccdWOHHf.s 			page 36


 1996 01c2 19       		.uleb128 0x19
 1997 01c3 01       		.uleb128 0x1
 1998 01c4 13       		.uleb128 0x13
 1999 01c5 00       		.byte	0
 2000 01c6 00       		.byte	0
 2001 01c7 21       		.uleb128 0x21
 2002 01c8 2E       		.uleb128 0x2e
 2003 01c9 00       		.byte	0
 2004 01ca 3F       		.uleb128 0x3f
 2005 01cb 19       		.uleb128 0x19
 2006 01cc 03       		.uleb128 0x3
 2007 01cd 0E       		.uleb128 0xe
 2008 01ce 3A       		.uleb128 0x3a
 2009 01cf 0B       		.uleb128 0xb
 2010 01d0 3B       		.uleb128 0x3b
 2011 01d1 0B       		.uleb128 0xb
 2012 01d2 39       		.uleb128 0x39
 2013 01d3 0B       		.uleb128 0xb
 2014 01d4 27       		.uleb128 0x27
 2015 01d5 19       		.uleb128 0x19
 2016 01d6 49       		.uleb128 0x49
 2017 01d7 13       		.uleb128 0x13
 2018 01d8 11       		.uleb128 0x11
 2019 01d9 01       		.uleb128 0x1
 2020 01da 12       		.uleb128 0x12
 2021 01db 06       		.uleb128 0x6
 2022 01dc 40       		.uleb128 0x40
 2023 01dd 18       		.uleb128 0x18
 2024 01de 7A       		.uleb128 0x7a
 2025 01df 19       		.uleb128 0x19
 2026 01e0 00       		.byte	0
 2027 01e1 00       		.byte	0
 2028 01e2 22       		.uleb128 0x22
 2029 01e3 2E       		.uleb128 0x2e
 2030 01e4 01       		.byte	0x1
 2031 01e5 3F       		.uleb128 0x3f
 2032 01e6 19       		.uleb128 0x19
 2033 01e7 03       		.uleb128 0x3
 2034 01e8 0E       		.uleb128 0xe
 2035 01e9 3A       		.uleb128 0x3a
 2036 01ea 0B       		.uleb128 0xb
 2037 01eb 3B       		.uleb128 0x3b
 2038 01ec 0B       		.uleb128 0xb
 2039 01ed 39       		.uleb128 0x39
 2040 01ee 0B       		.uleb128 0xb
 2041 01ef 27       		.uleb128 0x27
 2042 01f0 19       		.uleb128 0x19
 2043 01f1 11       		.uleb128 0x11
 2044 01f2 01       		.uleb128 0x1
 2045 01f3 12       		.uleb128 0x12
 2046 01f4 06       		.uleb128 0x6
 2047 01f5 40       		.uleb128 0x40
 2048 01f6 18       		.uleb128 0x18
 2049 01f7 7A       		.uleb128 0x7a
 2050 01f8 19       		.uleb128 0x19
 2051 01f9 00       		.byte	0
 2052 01fa 00       		.byte	0
ARM GAS  C:\Users\DEVELO~1\AppData\Local\Temp\ccdWOHHf.s 			page 37


 2053 01fb 23       		.uleb128 0x23
 2054 01fc 48       		.uleb128 0x48
 2055 01fd 01       		.byte	0x1
 2056 01fe 7D       		.uleb128 0x7d
 2057 01ff 01       		.uleb128 0x1
 2058 0200 7F       		.uleb128 0x7f
 2059 0201 13       		.uleb128 0x13
 2060 0202 01       		.uleb128 0x1
 2061 0203 13       		.uleb128 0x13
 2062 0204 00       		.byte	0
 2063 0205 00       		.byte	0
 2064 0206 24       		.uleb128 0x24
 2065 0207 48       		.uleb128 0x48
 2066 0208 01       		.byte	0x1
 2067 0209 7D       		.uleb128 0x7d
 2068 020a 01       		.uleb128 0x1
 2069 020b 7F       		.uleb128 0x7f
 2070 020c 13       		.uleb128 0x13
 2071 020d 00       		.byte	0
 2072 020e 00       		.byte	0
 2073 020f 00       		.byte	0
 2074              		.section	.debug_aranges,"",%progbits
 2075 0000 24000000 		.4byte	0x24
 2076 0004 0200     		.2byte	0x2
 2077 0006 00000000 		.4byte	.Ldebug_info0
 2078 000a 04       		.byte	0x4
 2079 000b 00       		.byte	0
 2080 000c 0000     		.2byte	0
 2081 000e 0000     		.2byte	0
 2082 0010 00000000 		.4byte	.LFB431
 2083 0014 40000000 		.4byte	.LFE431-.LFB431
 2084 0018 00000000 		.4byte	.LFB432
 2085 001c 0C000000 		.4byte	.LFE432-.LFB432
 2086 0020 00000000 		.4byte	0
 2087 0024 00000000 		.4byte	0
 2088              		.section	.debug_rnglists,"",%progbits
 2089              	.Ldebug_ranges0:
 2090 0000 15000000 		.4byte	.Ldebug_ranges3-.Ldebug_ranges2
 2091              	.Ldebug_ranges2:
 2092 0004 0500     		.2byte	0x5
 2093 0006 04       		.byte	0x4
 2094 0007 00       		.byte	0
 2095 0008 00000000 		.4byte	0
 2096              	.LLRL0:
 2097 000c 07       		.byte	0x7
 2098 000d 00000000 		.4byte	.LFB431
 2099 0011 40       		.uleb128 .LFE431-.LFB431
 2100 0012 07       		.byte	0x7
 2101 0013 00000000 		.4byte	.LFB432
 2102 0017 0C       		.uleb128 .LFE432-.LFB432
 2103 0018 00       		.byte	0
 2104              	.Ldebug_ranges3:
 2105              		.section	.debug_line,"",%progbits
 2106              	.Ldebug_line0:
 2107 0000 66020000 		.section	.debug_str,"MS",%progbits,1
 2107      03001A02 
 2107      00000201 
ARM GAS  C:\Users\DEVELO~1\AppData\Local\Temp\ccdWOHHf.s 			page 38


 2107      FB0E0D00 
 2107      01010101 
 2108              	.LASF163:
 2109 0000 7278636E 		.ascii	"rxcnt\000"
 2109      7400
 2110              	.LASF146:
 2111 0006 72657376 		.ascii	"resvd880\000"
 2111      64383830 
 2111      00
 2112              	.LASF189:
 2113 000f 63685468 		.ascii	"chThdSleep\000"
 2113      64536C65 
 2113      657000
 2114              	.LASF169:
 2115 001a 6F75745F 		.ascii	"out_cb\000"
 2115      636200
 2116              	.LASF4:
 2117 0021 73697A65 		.ascii	"size_t\000"
 2117      5F7400
 2118              	.LASF126:
 2119 0028 48505254 		.ascii	"HPRT\000"
 2119      00
 2120              	.LASF142:
 2121 002d 44494550 		.ascii	"DIEPEMPMSK\000"
 2121      454D504D 
 2121      534B00
 2122              	.LASF20:
 2123 0038 75696E74 		.ascii	"uint64_t\000"
 2123      36345F74 
 2123      00
 2124              	.LASF136:
 2125 0041 4441494E 		.ascii	"DAINTMSK\000"
 2125      544D534B 
 2125      00
 2126              	.LASF5:
 2127 004a 5F5F7569 		.ascii	"__uint8_t\000"
 2127      6E74385F 
 2127      7400
 2128              	.LASF101:
 2129 0054 47414842 		.ascii	"GAHBCFG\000"
 2129      43464700 
 2130              	.LASF69:
 2131 005c 75736265 		.ascii	"usbevent_t\000"
 2131      76656E74 
 2131      5F7400
 2132              	.LASF65:
 2133 0067 5553425F 		.ascii	"USB_EVENT_UNCONFIGURED\000"
 2133      4556454E 
 2133      545F554E 
 2133      434F4E46 
 2133      49475552 
 2134              	.LASF130:
 2135 007e 4443544C 		.ascii	"DCTL\000"
 2135      00
 2136              	.LASF164:
 2137 0083 72786275 		.ascii	"rxbuf\000"
 2137      6600
ARM GAS  C:\Users\DEVELO~1\AppData\Local\Temp\ccdWOHHf.s 			page 39


 2138              	.LASF108:
 2139 0089 47525846 		.ascii	"GRXFSIZ\000"
 2139      53495A00 
 2140              	.LASF56:
 2141 0091 5553425F 		.ascii	"USB_EP0_IN_WAITING_TX0\000"
 2141      4550305F 
 2141      494E5F57 
 2141      41495449 
 2141      4E475F54 
 2142              	.LASF129:
 2143 00a8 44434647 		.ascii	"DCFG\000"
 2143      00
 2144              	.LASF47:
 2145 00ad 5553425F 		.ascii	"USB_UNINIT\000"
 2145      554E494E 
 2145      495400
 2146              	.LASF96:
 2147 00b8 444F4550 		.ascii	"DOEPINT\000"
 2147      494E5400 
 2148              	.LASF72:
 2149 00c0 55534244 		.ascii	"USBDescriptor\000"
 2149      65736372 
 2149      6970746F 
 2149      7200
 2150              	.LASF82:
 2151 00ce 48435453 		.ascii	"HCTSIZ\000"
 2151      495A00
 2152              	.LASF128:
 2153 00d5 72657376 		.ascii	"resvd700\000"
 2153      64373030 
 2153      00
 2154              	.LASF124:
 2155 00de 4841494E 		.ascii	"HAINTMSK\000"
 2155      544D534B 
 2155      00
 2156              	.LASF1:
 2157 00e7 6C6F6E67 		.ascii	"long long int\000"
 2157      206C6F6E 
 2157      6720696E 
 2157      7400
 2158              	.LASF3:
 2159 00f5 7369676E 		.ascii	"signed char\000"
 2159      65642063 
 2159      68617200 
 2160              	.LASF73:
 2161 0101 75736263 		.ascii	"usbcallback_t\000"
 2161      616C6C62 
 2161      61636B5F 
 2161      7400
 2162              	.LASF154:
 2163 010f 6F74675F 		.ascii	"otg_ram_size\000"
 2163      72616D5F 
 2163      73697A65 
 2163      00
 2164              	.LASF13:
 2165 011c 6C6F6E67 		.ascii	"long unsigned int\000"
 2165      20756E73 
ARM GAS  C:\Users\DEVELO~1\AppData\Local\Temp\ccdWOHHf.s 			page 40


 2165      69676E65 
 2165      6420696E 
 2165      7400
 2166              	.LASF152:
 2167 012e 73746D33 		.ascii	"stm32_otg_t\000"
 2167      325F6F74 
 2167      675F7400 
 2168              	.LASF15:
 2169 013a 6C6F6E67 		.ascii	"long long unsigned int\000"
 2169      206C6F6E 
 2169      6720756E 
 2169      7369676E 
 2169      65642069 
 2170              	.LASF81:
 2171 0151 4843494E 		.ascii	"HCINTMSK\000"
 2171      544D534B 
 2171      00
 2172              	.LASF119:
 2173 015a 48464952 		.ascii	"HFIR\000"
 2173      00
 2174              	.LASF60:
 2175 015f 5553425F 		.ascii	"USB_EP0_ERROR\000"
 2175      4550305F 
 2175      4552524F 
 2175      5200
 2176              	.LASF109:
 2177 016d 44494550 		.ascii	"DIEPTXF0\000"
 2177      54584630 
 2177      00
 2178              	.LASF29:
 2179 0176 73746174 		.ascii	"state\000"
 2179      6500
 2180              	.LASF34:
 2181 017c 6F75745F 		.ascii	"out_params\000"
 2181      70617261 
 2181      6D7300
 2182              	.LASF131:
 2183 0187 44535453 		.ascii	"DSTS\000"
 2183      00
 2184              	.LASF77:
 2185 018c 75736267 		.ascii	"usbgetdescriptor_t\000"
 2185      65746465 
 2185      73637269 
 2185      70746F72 
 2185      5F7400
 2186              	.LASF127:
 2187 019f 72657376 		.ascii	"resvd444\000"
 2187      64343434 
 2187      00
 2188              	.LASF137:
 2189 01a8 72657376 		.ascii	"resvd820\000"
 2189      64383230 
 2189      00
 2190              	.LASF120:
 2191 01b1 48464E55 		.ascii	"HFNUM\000"
 2191      4D00
 2192              	.LASF75:
ARM GAS  C:\Users\DEVELO~1\AppData\Local\Temp\ccdWOHHf.s 			page 41


 2193 01b7 75736265 		.ascii	"usbeventcb_t\000"
 2193      76656E74 
 2193      63625F74 
 2193      00
 2194              	.LASF138:
 2195 01c4 72657376 		.ascii	"resvd824\000"
 2195      64383234 
 2195      00
 2196              	.LASF67:
 2197 01cd 5553425F 		.ascii	"USB_EVENT_WAKEUP\000"
 2197      4556454E 
 2197      545F5741 
 2197      4B455550 
 2197      00
 2198              	.LASF17:
 2199 01de 75696E74 		.ascii	"uint16_t\000"
 2199      31365F74 
 2199      00
 2200              	.LASF26:
 2201 01e7 646F7562 		.ascii	"double\000"
 2201      6C6500
 2202              	.LASF187:
 2203 01ee 433A5C43 		.ascii	"C:\\ChibiStudio\\chibios2111\\demos\\STM32\\RT-STM3"
 2203      68696269 
 2203      53747564 
 2203      696F5C63 
 2203      68696269 
 2204 021c 32483734 		.ascii	"2H743ZI_REV_XY-NUCLEO144 - Copie\000"
 2204      335A495F 
 2204      5245565F 
 2204      58592D4E 
 2204      55434C45 
 2205              	.LASF61:
 2206 023d 75736265 		.ascii	"usbep0state_t\000"
 2206      70307374 
 2206      6174655F 
 2206      7400
 2207              	.LASF160:
 2208 024b 746F7473 		.ascii	"totsize\000"
 2208      697A6500 
 2209              	.LASF68:
 2210 0253 5553425F 		.ascii	"USB_EVENT_STALLED\000"
 2210      4556454E 
 2210      545F5354 
 2210      414C4C45 
 2210      4400
 2211              	.LASF100:
 2212 0265 474F5447 		.ascii	"GOTGINT\000"
 2212      494E5400 
 2213              	.LASF23:
 2214 026d 73797369 		.ascii	"sysinterval_t\000"
 2214      6E746572 
 2214      76616C5F 
 2214      7400
 2215              	.LASF188:
 2216 027b 75736253 		.ascii	"usbStart\000"
 2216      74617274 
ARM GAS  C:\Users\DEVELO~1\AppData\Local\Temp\ccdWOHHf.s 			page 42


 2216      00
 2217              	.LASF0:
 2218 0284 756E7369 		.ascii	"unsigned int\000"
 2218      676E6564 
 2218      20696E74 
 2218      00
 2219              	.LASF51:
 2220 0291 5553425F 		.ascii	"USB_ACTIVE\000"
 2220      41435449 
 2220      564500
 2221              	.LASF159:
 2222 029c 74786275 		.ascii	"txbuf\000"
 2222      6600
 2223              	.LASF70:
 2224 02a2 75645F73 		.ascii	"ud_size\000"
 2224      697A6500 
 2225              	.LASF105:
 2226 02aa 47494E54 		.ascii	"GINTMSK\000"
 2226      4D534B00 
 2227              	.LASF30:
 2228 02b2 636F6E66 		.ascii	"config\000"
 2228      696700
 2229              	.LASF149:
 2230 02b9 50434743 		.ascii	"PCGCCTL\000"
 2230      43544C00 
 2231              	.LASF141:
 2232 02c1 72657376 		.ascii	"resvd830\000"
 2232      64383330 
 2232      00
 2233              	.LASF59:
 2234 02ca 5553425F 		.ascii	"USB_EP0_OUT_RX\000"
 2234      4550305F 
 2234      4F55545F 
 2234      525800
 2235              	.LASF83:
 2236 02d9 72657376 		.ascii	"resvd14\000"
 2236      64313400 
 2237              	.LASF84:
 2238 02e1 72657376 		.ascii	"resvd18\000"
 2238      64313800 
 2239              	.LASF24:
 2240 02e9 74696D65 		.ascii	"time_conv_t\000"
 2240      5F636F6E 
 2240      765F7400 
 2241              	.LASF143:
 2242 02f5 72657376 		.ascii	"resvd838\000"
 2242      64383338 
 2242      00
 2243              	.LASF31:
 2244 02fe 7472616E 		.ascii	"transmitting\000"
 2244      736D6974 
 2244      74696E67 
 2244      00
 2245              	.LASF168:
 2246 030b 696E5F63 		.ascii	"in_cb\000"
 2246      6200
 2247              	.LASF36:
ARM GAS  C:\Users\DEVELO~1\AppData\Local\Temp\ccdWOHHf.s 			page 43


 2248 0311 6570306E 		.ascii	"ep0next\000"
 2248      65787400 
 2249              	.LASF93:
 2250 0319 72657376 		.ascii	"resvd1C\000"
 2250      64314300 
 2251              	.LASF144:
 2252 0321 72657376 		.ascii	"resvd83C\000"
 2252      64383343 
 2252      00
 2253              	.LASF177:
 2254 032a 6576656E 		.ascii	"event_cb\000"
 2254      745F6362 
 2254      00
 2255              	.LASF104:
 2256 0333 47494E54 		.ascii	"GINTSTS\000"
 2256      53545300 
 2257              	.LASF97:
 2258 033b 444F4550 		.ascii	"DOEPTSIZ\000"
 2258      5453495A 
 2258      00
 2259              	.LASF156:
 2260 0344 73746D33 		.ascii	"stm32_otg_params_t\000"
 2260      325F6F74 
 2260      675F7061 
 2260      72616D73 
 2260      5F7400
 2261              	.LASF21:
 2262 0357 6D73675F 		.ascii	"msg_t\000"
 2262      7400
 2263              	.LASF71:
 2264 035d 75645F73 		.ascii	"ud_string\000"
 2264      7472696E 
 2264      6700
 2265              	.LASF151:
 2266 0367 4649464F 		.ascii	"FIFO\000"
 2266      00
 2267              	.LASF57:
 2268 036c 5553425F 		.ascii	"USB_EP0_IN_SENDING_STS\000"
 2268      4550305F 
 2268      494E5F53 
 2268      454E4449 
 2268      4E475F53 
 2269              	.LASF186:
 2270 0383 64726976 		.ascii	"drivers/usb/usb_device.c\000"
 2270      6572732F 
 2270      7573622F 
 2270      7573625F 
 2270      64657669 
 2271              	.LASF44:
 2272 039c 6F746770 		.ascii	"otgparams\000"
 2272      6172616D 
 2272      7300
 2273              	.LASF37:
 2274 03a6 6570306E 		.ascii	"ep0n\000"
 2274      00
 2275              	.LASF103:
 2276 03ab 47525354 		.ascii	"GRSTCTL\000"
ARM GAS  C:\Users\DEVELO~1\AppData\Local\Temp\ccdWOHHf.s 			page 44


 2276      43544C00 
 2277              	.LASF32:
 2278 03b3 72656365 		.ascii	"receiving\000"
 2278      6976696E 
 2278      6700
 2279              	.LASF85:
 2280 03bd 72657376 		.ascii	"resvd1c\000"
 2280      64316300 
 2281              	.LASF55:
 2282 03c5 5553425F 		.ascii	"USB_EP0_IN_TX\000"
 2282      4550305F 
 2282      494E5F54 
 2282      5800
 2283              	.LASF179:
 2284 03d3 72657175 		.ascii	"requests_hook_cb\000"
 2284      65737473 
 2284      5F686F6F 
 2284      6B5F6362 
 2284      00
 2285              	.LASF54:
 2286 03e4 5553425F 		.ascii	"USB_EP0_STP_WAITING\000"
 2286      4550305F 
 2286      5354505F 
 2286      57414954 
 2286      494E4700 
 2287              	.LASF94:
 2288 03f8 73746D33 		.ascii	"stm32_otg_in_ep_t\000"
 2288      325F6F74 
 2288      675F696E 
 2288      5F65705F 
 2288      7400
 2289              	.LASF86:
 2290 040a 73746D33 		.ascii	"stm32_otg_host_chn_t\000"
 2290      325F6F74 
 2290      675F686F 
 2290      73745F63 
 2290      686E5F74 
 2291              	.LASF145:
 2292 041f 72657376 		.ascii	"resvd840\000"
 2292      64383430 
 2292      00
 2293              	.LASF106:
 2294 0428 47525853 		.ascii	"GRXSTSR\000"
 2294      54535200 
 2295              	.LASF115:
 2296 0430 48505458 		.ascii	"HPTXFSIZ\000"
 2296      4653495A 
 2296      00
 2297              	.LASF157:
 2298 0439 74787369 		.ascii	"txsize\000"
 2298      7A6500
 2299              	.LASF155:
 2300 0440 6E756D5F 		.ascii	"num_endpoints\000"
 2300      656E6470 
 2300      6F696E74 
 2300      7300
 2301              	.LASF87:
ARM GAS  C:\Users\DEVELO~1\AppData\Local\Temp\ccdWOHHf.s 			page 45


 2302 044e 44494550 		.ascii	"DIEPCTL\000"
 2302      43544C00 
 2303              	.LASF41:
 2304 0456 61646472 		.ascii	"address\000"
 2304      65737300 
 2305              	.LASF173:
 2306 045e 6F75745F 		.ascii	"out_state\000"
 2306      73746174 
 2306      6500
 2307              	.LASF175:
 2308 0468 73657475 		.ascii	"setup_buf\000"
 2308      705F6275 
 2308      6600
 2309              	.LASF76:
 2310 0472 75736272 		.ascii	"usbreqhandler_t\000"
 2310      65716861 
 2310      6E646C65 
 2310      725F7400 
 2311              	.LASF165:
 2312 0482 5553424F 		.ascii	"USBOutEndpointState\000"
 2312      7574456E 
 2312      64706F69 
 2312      6E745374 
 2312      61746500 
 2313              	.LASF80:
 2314 0496 4843494E 		.ascii	"HCINT\000"
 2314      5400
 2315              	.LASF39:
 2316 049c 73657475 		.ascii	"setup\000"
 2316      7000
 2317              	.LASF91:
 2318 04a2 44494550 		.ascii	"DIEPTSIZ\000"
 2318      5453495A 
 2318      00
 2319              	.LASF133:
 2320 04ab 44494550 		.ascii	"DIEPMSK\000"
 2320      4D534B00 
 2321              	.LASF180:
 2322 04b3 736F665F 		.ascii	"sof_cb\000"
 2322      636200
 2323              	.LASF176:
 2324 04ba 55534245 		.ascii	"USBEndpointConfig\000"
 2324      6E64706F 
 2324      696E7443 
 2324      6F6E6669 
 2324      6700
 2325              	.LASF14:
 2326 04cc 5F5F7569 		.ascii	"__uint64_t\000"
 2326      6E743634 
 2326      5F7400
 2327              	.LASF167:
 2328 04d7 73657475 		.ascii	"setup_cb\000"
 2328      705F6362 
 2328      00
 2329              	.LASF102:
 2330 04e0 47555342 		.ascii	"GUSBCFG\000"
 2330      43464700 
ARM GAS  C:\Users\DEVELO~1\AppData\Local\Temp\ccdWOHHf.s 			page 46


 2331              	.LASF25:
 2332 04e8 666C6F61 		.ascii	"float\000"
 2332      7400
 2333              	.LASF45:
 2334 04ee 706D6E65 		.ascii	"pmnext\000"
 2334      787400
 2335              	.LASF111:
 2336 04f5 72657376 		.ascii	"resvd30\000"
 2336      64333000 
 2337              	.LASF63:
 2338 04fd 5553425F 		.ascii	"USB_EVENT_ADDRESS\000"
 2338      4556454E 
 2338      545F4144 
 2338      44524553 
 2338      5300
 2339              	.LASF150:
 2340 050f 72657376 		.ascii	"resvdE04\000"
 2340      64453034 
 2340      00
 2341              	.LASF112:
 2342 0518 72657376 		.ascii	"resvd34\000"
 2342      64333400 
 2343              	.LASF88:
 2344 0520 72657376 		.ascii	"resvd4\000"
 2344      643400
 2345              	.LASF170:
 2346 0527 696E5F6D 		.ascii	"in_maxsize\000"
 2346      61787369 
 2346      7A6500
 2347              	.LASF79:
 2348 0532 72657376 		.ascii	"resvd8\000"
 2348      643800
 2349              	.LASF49:
 2350 0539 5553425F 		.ascii	"USB_READY\000"
 2350      52454144 
 2350      5900
 2351              	.LASF48:
 2352 0543 5553425F 		.ascii	"USB_STOP\000"
 2352      53544F50 
 2352      00
 2353              	.LASF27:
 2354 054c 5F426F6F 		.ascii	"_Bool\000"
 2354      6C00
 2355              	.LASF18:
 2356 0552 696E7433 		.ascii	"int32_t\000"
 2356      325F7400 
 2357              	.LASF6:
 2358 055a 756E7369 		.ascii	"unsigned char\000"
 2358      676E6564 
 2358      20636861 
 2358      7200
 2359              	.LASF90:
 2360 0568 72657376 		.ascii	"resvdC\000"
 2360      644300
 2361              	.LASF89:
 2362 056f 44494550 		.ascii	"DIEPINT\000"
 2362      494E5400 
ARM GAS  C:\Users\DEVELO~1\AppData\Local\Temp\ccdWOHHf.s 			page 47


 2363              	.LASF135:
 2364 0577 4441494E 		.ascii	"DAINT\000"
 2364      5400
 2365              	.LASF7:
 2366 057d 73686F72 		.ascii	"short int\000"
 2366      7420696E 
 2366      7400
 2367              	.LASF46:
 2368 0587 75736265 		.ascii	"usbep_t\000"
 2368      705F7400 
 2369              	.LASF153:
 2370 058f 72785F66 		.ascii	"rx_fifo_size\000"
 2370      69666F5F 
 2370      73697A65 
 2370      00
 2371              	.LASF190:
 2372 059c 7573625F 		.ascii	"usb_device_active\000"
 2372      64657669 
 2372      63655F61 
 2372      63746976 
 2372      6500
 2373              	.LASF178:
 2374 05ae 6765745F 		.ascii	"get_descriptor_cb\000"
 2374      64657363 
 2374      72697074 
 2374      6F725F63 
 2374      6200
 2375              	.LASF183:
 2376 05c0 7573625F 		.ascii	"usb_midi_tx_ready\000"
 2376      6D696469 
 2376      5F74785F 
 2376      72656164 
 2376      7900
 2377              	.LASF50:
 2378 05d2 5553425F 		.ascii	"USB_SELECTED\000"
 2378      53454C45 
 2378      43544544 
 2378      00
 2379              	.LASF140:
 2380 05df 44564255 		.ascii	"DVBUSPULSE\000"
 2380      5350554C 
 2380      534500
 2381              	.LASF43:
 2382 05ea 73617665 		.ascii	"saved_state\000"
 2382      645F7374 
 2382      61746500 
 2383              	.LASF122:
 2384 05f6 48505458 		.ascii	"HPTXSTS\000"
 2384      53545300 
 2385              	.LASF172:
 2386 05fe 696E5F73 		.ascii	"in_state\000"
 2386      74617465 
 2386      00
 2387              	.LASF121:
 2388 0607 72657376 		.ascii	"resvd40C\000"
 2388      64343043 
 2388      00
ARM GAS  C:\Users\DEVELO~1\AppData\Local\Temp\ccdWOHHf.s 			page 48


 2389              	.LASF66:
 2390 0610 5553425F 		.ascii	"USB_EVENT_SUSPEND\000"
 2390      4556454E 
 2390      545F5355 
 2390      5350454E 
 2390      4400
 2391              	.LASF35:
 2392 0622 65703073 		.ascii	"ep0state\000"
 2392      74617465 
 2392      00
 2393              	.LASF181:
 2394 062b 55534243 		.ascii	"USBConfig\000"
 2394      6F6E6669 
 2394      6700
 2395              	.LASF117:
 2396 0635 72657376 		.ascii	"resvd140\000"
 2396      64313430 
 2396      00
 2397              	.LASF2:
 2398 063e 6C6F6E67 		.ascii	"long double\000"
 2398      20646F75 
 2398      626C6500 
 2399              	.LASF22:
 2400 064a 63686172 		.ascii	"char\000"
 2400      00
 2401              	.LASF184:
 2402 064f 75736263 		.ascii	"usbcfg\000"
 2402      666700
 2403              	.LASF123:
 2404 0656 4841494E 		.ascii	"HAINT\000"
 2404      5400
 2405              	.LASF62:
 2406 065c 5553425F 		.ascii	"USB_EVENT_RESET\000"
 2406      4556454E 
 2406      545F5245 
 2406      53455400 
 2407              	.LASF8:
 2408 066c 5F5F7569 		.ascii	"__uint16_t\000"
 2408      6E743136 
 2408      5F7400
 2409              	.LASF118:
 2410 0677 48434647 		.ascii	"HCFG\000"
 2410      00
 2411              	.LASF53:
 2412 067c 75736273 		.ascii	"usbstate_t\000"
 2412      74617465 
 2412      5F7400
 2413              	.LASF148:
 2414 0687 72657376 		.ascii	"resvdD00\000"
 2414      64443030 
 2414      00
 2415              	.LASF185:
 2416 0690 474E5520 		.ascii	"GNU C17 11.3.1 20220712 -mcpu=cortex-m7 -mthumb -mf"
 2416      43313720 
 2416      31312E33 
 2416      2E312032 
 2416      30323230 
ARM GAS  C:\Users\DEVELO~1\AppData\Local\Temp\ccdWOHHf.s 			page 49


 2417 06c3 6C6F6174 		.ascii	"loat-abi=soft -march=armv7e-m -ggdb -O2 -fomit-fram"
 2417      2D616269 
 2417      3D736F66 
 2417      74202D6D 
 2417      61726368 
 2418 06f6 652D706F 		.ascii	"e-pointer -falign-functions=16 -ffunction-sections "
 2418      696E7465 
 2418      72202D66 
 2418      616C6967 
 2418      6E2D6675 
 2419 0729 2D666461 		.ascii	"-fdata-sections -fno-common\000"
 2419      74612D73 
 2419      65637469 
 2419      6F6E7320 
 2419      2D666E6F 
 2420              	.LASF10:
 2421 0745 5F5F696E 		.ascii	"__int32_t\000"
 2421      7433325F 
 2421      7400
 2422              	.LASF107:
 2423 074f 47525853 		.ascii	"GRXSTSP\000"
 2423      54535000 
 2424              	.LASF64:
 2425 0757 5553425F 		.ascii	"USB_EVENT_CONFIGURED\000"
 2425      4556454E 
 2425      545F434F 
 2425      4E464947 
 2425      55524544 
 2426              	.LASF38:
 2427 076c 65703065 		.ascii	"ep0endcb\000"
 2427      6E646362 
 2427      00
 2428              	.LASF147:
 2429 0775 72657376 		.ascii	"resvd8C0\000"
 2429      64384330 
 2429      00
 2430              	.LASF99:
 2431 077e 474F5447 		.ascii	"GOTGCTL\000"
 2431      43544C00 
 2432              	.LASF9:
 2433 0786 73686F72 		.ascii	"short unsigned int\000"
 2433      7420756E 
 2433      7369676E 
 2433      65642069 
 2433      6E7400
 2434              	.LASF12:
 2435 0799 5F5F7569 		.ascii	"__uint32_t\000"
 2435      6E743332 
 2435      5F7400
 2436              	.LASF182:
 2437 07a4 55534244 		.ascii	"USBD1\000"
 2437      3100
 2438              	.LASF139:
 2439 07aa 44564255 		.ascii	"DVBUSDIS\000"
 2439      53444953 
 2439      00
 2440              	.LASF166:
ARM GAS  C:\Users\DEVELO~1\AppData\Local\Temp\ccdWOHHf.s 			page 50


 2441 07b3 65705F6D 		.ascii	"ep_mode\000"
 2441      6F646500 
 2442              	.LASF125:
 2443 07bb 72657376 		.ascii	"resvd41C\000"
 2443      64343143 
 2443      00
 2444              	.LASF95:
 2445 07c4 444F4550 		.ascii	"DOEPCTL\000"
 2445      43544C00 
 2446              	.LASF158:
 2447 07cc 7478636E 		.ascii	"txcnt\000"
 2447      7400
 2448              	.LASF19:
 2449 07d2 75696E74 		.ascii	"uint32_t\000"
 2449      33325F74 
 2449      00
 2450              	.LASF58:
 2451 07db 5553425F 		.ascii	"USB_EP0_OUT_WAITING_STS\000"
 2451      4550305F 
 2451      4F55545F 
 2451      57414954 
 2451      494E475F 
 2452              	.LASF171:
 2453 07f3 6F75745F 		.ascii	"out_maxsize\000"
 2453      6D617873 
 2453      697A6500 
 2454              	.LASF40:
 2455 07ff 73746174 		.ascii	"status\000"
 2455      757300
 2456              	.LASF74:
 2457 0806 75736265 		.ascii	"usbepcallback_t\000"
 2457      7063616C 
 2457      6C626163 
 2457      6B5F7400 
 2458              	.LASF114:
 2459 0816 72657376 		.ascii	"resvd58\000"
 2459      64353800 
 2460              	.LASF161:
 2461 081e 55534249 		.ascii	"USBInEndpointState\000"
 2461      6E456E64 
 2461      706F696E 
 2461      74537461 
 2461      746500
 2462              	.LASF28:
 2463 0831 55534244 		.ascii	"USBDriver\000"
 2463      72697665 
 2463      7200
 2464              	.LASF16:
 2465 083b 75696E74 		.ascii	"uint8_t\000"
 2465      385F7400 
 2466              	.LASF162:
 2467 0843 72787369 		.ascii	"rxsize\000"
 2467      7A6500
 2468              	.LASF134:
 2469 084a 444F4550 		.ascii	"DOEPMSK\000"
 2469      4D534B00 
 2470              	.LASF191:
ARM GAS  C:\Users\DEVELO~1\AppData\Local\Temp\ccdWOHHf.s 			page 51


 2471 0852 7573625F 		.ascii	"usb_device_start\000"
 2471      64657669 
 2471      63655F73 
 2471      74617274 
 2471      00
 2472              	.LASF33:
 2473 0863 696E5F70 		.ascii	"in_params\000"
 2473      6172616D 
 2473      7300
 2474              	.LASF98:
 2475 086d 73746D33 		.ascii	"stm32_otg_out_ep_t\000"
 2475      325F6F74 
 2475      675F6F75 
 2475      745F6570 
 2475      5F7400
 2476              	.LASF113:
 2477 0880 47434346 		.ascii	"GCCFG\000"
 2477      4700
 2478              	.LASF92:
 2479 0886 44545846 		.ascii	"DTXFSTS\000"
 2479      53545300 
 2480              	.LASF78:
 2481 088e 48434348 		.ascii	"HCCHAR\000"
 2481      415200
 2482              	.LASF11:
 2483 0895 6C6F6E67 		.ascii	"long int\000"
 2483      20696E74 
 2483      00
 2484              	.LASF116:
 2485 089e 44494550 		.ascii	"DIEPTXF\000"
 2485      54584600 
 2486              	.LASF52:
 2487 08a6 5553425F 		.ascii	"USB_SUSPENDED\000"
 2487      53555350 
 2487      454E4445 
 2487      4400
 2488              	.LASF42:
 2489 08b4 636F6E66 		.ascii	"configuration\000"
 2489      69677572 
 2489      6174696F 
 2489      6E00
 2490              	.LASF174:
 2491 08c2 696E5F6D 		.ascii	"in_multiplier\000"
 2491      756C7469 
 2491      706C6965 
 2491      7200
 2492              	.LASF110:
 2493 08d0 484E5054 		.ascii	"HNPTXSTS\000"
 2493      58535453 
 2493      00
 2494              	.LASF132:
 2495 08d9 72657376 		.ascii	"resvd80C\000"
 2495      64383043 
 2495      00
 2496              		.ident	"GCC: (Arm GNU Toolchain 11.3.Rel1) 11.3.1 20220712"
ARM GAS  C:\Users\DEVELO~1\AppData\Local\Temp\ccdWOHHf.s 			page 52


DEFINED SYMBOLS
                            *ABS*:00000000 usb_device.c
C:\Users\DEVELO~1\AppData\Local\Temp\ccdWOHHf.s:18     .text.usb_device_start:00000000 $t
C:\Users\DEVELO~1\AppData\Local\Temp\ccdWOHHf.s:25     .text.usb_device_start:00000000 usb_device_start
C:\Users\DEVELO~1\AppData\Local\Temp\ccdWOHHf.s:66     .text.usb_device_start:00000038 $d
C:\Users\DEVELO~1\AppData\Local\Temp\ccdWOHHf.s:72     .text.usb_device_active:00000000 $t
C:\Users\DEVELO~1\AppData\Local\Temp\ccdWOHHf.s:79     .text.usb_device_active:00000000 usb_device_active
C:\Users\DEVELO~1\AppData\Local\Temp\ccdWOHHf.s:95     .text.usb_device_active:00000008 $d

UNDEFINED SYMBOLS
chThdSleep
usbStart
USBD1
usbcfg
usb_midi_tx_ready
